# SymbolsHelper-Confirmed: 3.3.0 amd64 armel armhf hppa hurd-i386 i386 mipsel powerpc ppc64 riscv64 s390x sh4
libqzxing.so.3 libqzxing3 #MINVER#
* Build-Depends-Package: libqzxing-dev
 _Z10getTagRectRK14QSharedPointerISt6vectorIS_IN5zxing11ResultPointEESaIS3_EEERKS_INS1_9BitMatrixEE@Base 3.3.0
 _Z17extendedEuclidean10BigIntegerS_RS_S0_S0_@Base 3.3.0
 _Z18bigIntegerToStringB5cxx11RK10BigInteger@Base 3.3.0
 _Z18stringToBigIntegerRKNSt7__cxx1112basic_stringIcSt11char_traitsIcESaIcEEE@Base 3.3.0
 _Z19bigUnsignedToStringB5cxx11RK11BigUnsigned@Base 3.3.0
 _Z19stringToBigUnsignedRKNSt7__cxx1112basic_stringIcSt11char_traitsIcESaIcEEE@Base 3.3.0
 _Z3gcd11BigUnsignedS_@Base 3.3.0
 _Z6modexpRK10BigIntegerRK11BigUnsignedS4_@Base 3.3.0
 _Z6modinvRK10BigIntegerRK11BigUnsigned@Base 3.3.0
 _ZN10BigInteger19divideWithRemainderERKS_RS_@Base 3.3.0
 _ZN10BigInteger3addERKS_S1_@Base 3.3.0
 _ZN10BigInteger6negateERKS_@Base 3.3.0
 _ZN10BigInteger8multiplyERKS_S1_@Base 3.3.0
 _ZN10BigInteger8subtractERKS_S1_@Base 3.3.0
 _ZN10BigIntegerC1EPKmjNS_4SignE@Base 3.3.0
 _ZN10BigIntegerC1ERK11BigUnsignedNS_4SignE@Base 3.3.0
 _ZN10BigIntegerC1Ei@Base 3.3.0
 _ZN10BigIntegerC1Ej@Base 3.3.0
 _ZN10BigIntegerC1El@Base 3.3.0
 _ZN10BigIntegerC1Em@Base 3.3.0
 _ZN10BigIntegerC1Es@Base 3.3.0
 _ZN10BigIntegerC1Et@Base 3.3.0
 _ZN10BigIntegerC2EPKmjNS_4SignE@Base 3.3.0
 _ZN10BigIntegerC2ERK11BigUnsignedNS_4SignE@Base 3.3.0
 _ZN10BigIntegerC2Ei@Base 3.3.0
 _ZN10BigIntegerC2Ej@Base 3.3.0
 _ZN10BigIntegerC2El@Base 3.3.0
 _ZN10BigIntegerC2Em@Base 3.3.0
 _ZN10BigIntegerC2Es@Base 3.3.0
 _ZN10BigIntegerC2Et@Base 3.3.0
 _ZN10BigIntegeraSERKS_@Base 3.3.0
 _ZN10BigIntegermmEi@Base 3.3.0
 _ZN10BigIntegermmEv@Base 3.3.0
 _ZN10BigIntegerppEi@Base 3.3.0
 _ZN10BigIntegerppEv@Base 3.3.0
 _ZN10QByteArrayD1Ev@Base 3.3.0
 _ZN10QByteArrayD2Ev@Base 3.3.0
 _ZN11BigUnsigned12bitShiftLeftERKS_i@Base 3.3.0
 _ZN11BigUnsigned13bitShiftRightERKS_i@Base 3.3.0
 _ZN11BigUnsigned19divideWithRemainderERKS_RS_@Base 3.3.0
 _ZN11BigUnsigned3addERKS_S1_@Base 3.3.0
 _ZN11BigUnsigned5bitOrERKS_S1_@Base 3.3.0
 _ZN11BigUnsigned6bitAndERKS_S1_@Base 3.3.0
 _ZN11BigUnsigned6bitXorERKS_S1_@Base 3.3.0
 _ZN11BigUnsigned6setBitEjb@Base 3.3.0
 _ZN11BigUnsigned8multiplyERKS_S1_@Base 3.3.0
 _ZN11BigUnsigned8setBlockEjm@Base 3.3.0
 _ZN11BigUnsigned8subtractERKS_S1_@Base 3.3.0
 _ZN11BigUnsignedC1Ei@Base 3.3.0
 _ZN11BigUnsignedC1Ej@Base 3.3.0
 _ZN11BigUnsignedC1El@Base 3.3.0
 _ZN11BigUnsignedC1Em@Base 3.3.0
 _ZN11BigUnsignedC1Es@Base 3.3.0
 _ZN11BigUnsignedC1Et@Base 3.3.0
 _ZN11BigUnsignedC2Ei@Base 3.3.0
 _ZN11BigUnsignedC2Ej@Base 3.3.0
 _ZN11BigUnsignedC2El@Base 3.3.0
 _ZN11BigUnsignedC2Em@Base 3.3.0
 _ZN11BigUnsignedC2Es@Base 3.3.0
 _ZN11BigUnsignedC2Et@Base 3.3.0
 _ZN11BigUnsignedmmEi@Base 3.3.0
 _ZN11BigUnsignedmmEv@Base 3.3.0
 _ZN11BigUnsignedppEi@Base 3.3.0
 _ZN11BigUnsignedppEv@Base 3.3.0
 (optional=templinst)_ZN11QQmlPrivate10createIntoI12QZXingFilterEEvPv@Base 3.3.0
 (optional=templinst)_ZN11QQmlPrivate10createIntoI6QZXingEEvPv@Base 3.3.0
 (optional=templinst)_ZN11QQmlPrivate11QQmlElementI12QZXingFilterED0Ev@Base 3.3.0
 (optional=templinst)_ZN11QQmlPrivate11QQmlElementI12QZXingFilterED1Ev@Base 3.3.0
 (optional=templinst)_ZN11QQmlPrivate11QQmlElementI12QZXingFilterED2Ev@Base 3.3.0
 (optional=templinst)_ZN11QQmlPrivate11QQmlElementI6QZXingED0Ev@Base 3.3.0
 (optional=templinst)_ZN11QQmlPrivate11QQmlElementI6QZXingED1Ev@Base 3.3.0
 (optional=templinst)_ZN11QQmlPrivate11QQmlElementI6QZXingED2Ev@Base 3.3.0
 _ZN12ImageHandler11qt_metacallEN11QMetaObject4CallEiPPv@Base 3.3.0
 _ZN12ImageHandler11qt_metacastEPKc@Base 3.3.0
 _ZN12ImageHandler13extractQImageEP7QObjectiiii@Base 3.3.0
 _ZN12ImageHandler16staticMetaObjectE@Base 3.3.0
 _ZN12ImageHandler17imageGrabberReadyEv@Base 3.3.0
 _ZN12ImageHandler4saveEP7QObjectRK7QStringiiii@Base 3.3.0
 _ZN12ImageHandlerC1EP7QObject@Base 3.3.0
 _ZN12ImageHandlerC2EP7QObject@Base 3.3.0
 _ZN12ImageHandlerD0Ev@Base 3.3.0
 _ZN12ImageHandlerD1Ev@Base 3.3.0
 _ZN12ImageHandlerD2Ev@Base 3.3.0
 _ZN12QZXingFilter11qt_metacallEN11QMetaObject4CallEiPPv@Base 3.3.0
 _ZN12QZXingFilter11qt_metacastEPKc@Base 3.3.0
 _ZN12QZXingFilter14setOrientationEi@Base 3.3.0
 _ZN12QZXingFilter15decodingStartedEv@Base 3.3.0
 _ZN12QZXingFilter16decodingFinishedEbi@Base 3.3.0
 _ZN12QZXingFilter16staticMetaObjectE@Base 3.3.0
 _ZN12QZXingFilter17isDecodingChangedEv@Base 3.3.0
 _ZN12QZXingFilter18captureRectChangedEv@Base 3.3.0
 _ZN12QZXingFilter18orientationChangedEi@Base 3.3.0
 _ZN12QZXingFilter20createFilterRunnableEv@Base 3.3.0
 _ZN12QZXingFilter21handleDecodingStartedEv@Base 3.3.0
 _ZN12QZXingFilter22handleDecodingFinishedEb@Base 3.3.0
 _ZN12QZXingFilterC1EP7QObject@Base 3.3.0
 _ZN12QZXingFilterC2EP7QObject@Base 3.3.0
 _ZN12QZXingFilterD0Ev@Base 3.3.0
 _ZN12QZXingFilterD1Ev@Base 3.3.0
 _ZN12QZXingFilterD2Ev@Base 3.3.0
 (optional=templinst)_ZN12QtConcurrent15RunFunctionTaskIvE3runEv@Base 3.3.0
 (optional=templinst)_ZN12QtConcurrent19RunFunctionTaskBaseIvE3runEv@Base 3.3.0
 (optional=templinst)_ZN12QtConcurrent36VoidStoredMemberFunctionPointerCall2Iv20QZXingFilterRunnableR16SimpleVideoFrameS2_RK5QRectS4_E10runFunctorEv@Base 3.3.0
 (optional=templinst)_ZN12QtConcurrent36VoidStoredMemberFunctionPointerCall2Iv20QZXingFilterRunnableR16SimpleVideoFrameS2_RK5QRectS4_ED0Ev@Base 3.3.0
 (optional=templinst)_ZN12QtConcurrent36VoidStoredMemberFunctionPointerCall2Iv20QZXingFilterRunnableR16SimpleVideoFrameS2_RK5QRectS4_ED1Ev@Base 3.3.0
 (optional=templinst)_ZN12QtConcurrent36VoidStoredMemberFunctionPointerCall2Iv20QZXingFilterRunnableR16SimpleVideoFrameS2_RK5QRectS4_ED2Ev@Base 3.3.0
 (optional=templinst)_ZN12QtConcurrent3runIv20QZXingFilterRunnableR16SimpleVideoFrameS2_RK5QRectS4_EE7QFutureIT_EPT0_MSA_FS8_T1_T3_ERKT2_RKT4_@Base 3.3.0
 (optional=templinst)_ZN14QSharedPointerIN5zxing9GenericGFEED1Ev@Base 3.3.0
 (optional=templinst)_ZN14QSharedPointerIN5zxing9GenericGFEED2Ev@Base 3.3.0
 (optional=templinst)_ZN14QSharedPointerISt6vectorI10BigIntegerSaIS1_EEED1Ev@Base 3.3.0
 (optional=templinst)_ZN14QSharedPointerISt6vectorI10BigIntegerSaIS1_EEED2Ev@Base 3.3.0
 (optional=templinst)_ZN14QSharedPointerISt6vectorIhSaIhEEED1Ev@Base 3.3.0
 (optional=templinst)_ZN14QSharedPointerISt6vectorIhSaIhEEED2Ev@Base 3.3.0
 (optional=templinst)_ZN14QSharedPointerISt6vectorIiSaIiEEED1Ev@Base 3.3.0
 (optional=templinst)_ZN14QSharedPointerISt6vectorIiSaIiEEED2Ev@Base 3.3.0
 (optional=templinst|arch=!amd64 !ppc64 !riscv64 !s390x)_ZN15NumberlikeArrayImEC1ERKS0_@Base 3.3.0
 (optional=templinst|arch=!amd64 !ppc64 !riscv64 !s390x)_ZN15NumberlikeArrayImEC2ERKS0_@Base 3.3.0
 (optional=templinst)_ZN15NumberlikeArrayImEaSERKS0_@Base 3.3.0
 (optional=templinst)_ZN15QtSharedPointer33ExternalRefCountWithCustomDeleterI18CameraImageWrapperNS_13NormalDeleterEE7deleterEPNS_20ExternalRefCountDataE@Base 3.3.0
 (optional=templinst)_ZN15QtSharedPointer33ExternalRefCountWithCustomDeleterIN5zxing10datamatrix16DataMatrixReaderENS_13NormalDeleterEE7deleterEPNS_20ExternalRefCountDataE@Base 3.3.0
 (optional=templinst)_ZN15QtSharedPointer33ExternalRefCountWithCustomDeleterIN5zxing10datamatrix26ResultPointsAndTransitionsENS_13NormalDeleterEE7deleterEPNS_20ExternalRefCountDataE@Base 3.3.0
 (optional=templinst)_ZN15QtSharedPointer33ExternalRefCountWithCustomDeleterIN5zxing10datamatrix7VersionENS_13NormalDeleterEE7deleterEPNS_20ExternalRefCountDataE@Base 3.3.0
 (optional=templinst)_ZN15QtSharedPointer33ExternalRefCountWithCustomDeleterIN5zxing10datamatrix9DataBlockENS_13NormalDeleterEE7deleterEPNS_20ExternalRefCountDataE@Base 3.3.0
 (optional=templinst)_ZN15QtSharedPointer33ExternalRefCountWithCustomDeleterIN5zxing11ResultPointENS_13NormalDeleterEE7deleterEPNS_20ExternalRefCountDataE@Base 3.3.0
 (optional=templinst)_ZN15QtSharedPointer33ExternalRefCountWithCustomDeleterIN5zxing12BinaryBitmapENS_13NormalDeleterEE7deleterEPNS_20ExternalRefCountDataE@Base 3.3.0
 (optional=templinst)_ZN15QtSharedPointer33ExternalRefCountWithCustomDeleterIN5zxing13DecoderResultENS_13NormalDeleterEE7deleterEPNS_20ExternalRefCountDataE@Base 3.3.0
 (optional=templinst)_ZN15QtSharedPointer33ExternalRefCountWithCustomDeleterIN5zxing13GenericGFPolyENS_13NormalDeleterEE7deleterEPNS_20ExternalRefCountDataE@Base 3.3.0
 (optional=templinst)_ZN15QtSharedPointer33ExternalRefCountWithCustomDeleterIN5zxing14DetectorResultENS_13NormalDeleterEE7deleterEPNS_20ExternalRefCountDataE@Base 3.3.0
 (optional=templinst)_ZN15QtSharedPointer33ExternalRefCountWithCustomDeleterIN5zxing15HybridBinarizerENS_13NormalDeleterEE7deleterEPNS_20ExternalRefCountDataE@Base 3.3.0
 (optional=templinst)_ZN15QtSharedPointer33ExternalRefCountWithCustomDeleterIN5zxing15LuminanceSourceENS_13NormalDeleterEE7deleterEPNS_20ExternalRefCountDataE@Base 3.3.0
 (optional=templinst)_ZN15QtSharedPointer33ExternalRefCountWithCustomDeleterIN5zxing20PerspectiveTransformENS_13NormalDeleterEE7deleterEPNS_20ExternalRefCountDataE@Base 3.3.0
 (optional=templinst)_ZN15QtSharedPointer33ExternalRefCountWithCustomDeleterIN5zxing22WhiteRectangleDetectorENS_13NormalDeleterEE7deleterEPNS_20ExternalRefCountDataE@Base 3.3.0
 (optional=templinst)_ZN15QtSharedPointer33ExternalRefCountWithCustomDeleterIN5zxing23InvertedLuminanceSourceENS_13NormalDeleterEE7deleterEPNS_20ExternalRefCountDataE@Base 3.3.0
 (optional=templinst)_ZN15QtSharedPointer33ExternalRefCountWithCustomDeleterIN5zxing24GlobalHistogramBinarizerENS_13NormalDeleterEE7deleterEPNS_20ExternalRefCountDataE@Base 3.3.0
 (optional=templinst)_ZN15QtSharedPointer33ExternalRefCountWithCustomDeleterIN5zxing24GreyscaleLuminanceSourceENS_13NormalDeleterEE7deleterEPNS_20ExternalRefCountDataE@Base 3.3.0
 (optional=templinst)_ZN15QtSharedPointer33ExternalRefCountWithCustomDeleterIN5zxing31GreyscaleRotatedLuminanceSourceENS_13NormalDeleterEE7deleterEPNS_20ExternalRefCountDataE@Base 3.3.0
 (optional=templinst)_ZN15QtSharedPointer33ExternalRefCountWithCustomDeleterIN5zxing4oned10EAN8ReaderENS_13NormalDeleterEE7deleterEPNS_20ExternalRefCountDataE@Base 3.3.0
 (optional=templinst)_ZN15QtSharedPointer33ExternalRefCountWithCustomDeleterIN5zxing4oned10UPCAReaderENS_13NormalDeleterEE7deleterEPNS_20ExternalRefCountDataE@Base 3.3.0
 (optional=templinst)_ZN15QtSharedPointer33ExternalRefCountWithCustomDeleterIN5zxing4oned10UPCEReaderENS_13NormalDeleterEE7deleterEPNS_20ExternalRefCountDataE@Base 3.3.0
 (optional=templinst)_ZN15QtSharedPointer33ExternalRefCountWithCustomDeleterIN5zxing4oned11EAN13ReaderENS_13NormalDeleterEE7deleterEPNS_20ExternalRefCountDataE@Base 3.3.0
 (optional=templinst)_ZN15QtSharedPointer33ExternalRefCountWithCustomDeleterIN5zxing4oned12Code39ReaderENS_13NormalDeleterEE7deleterEPNS_20ExternalRefCountDataE@Base 3.3.0
 (optional=templinst)_ZN15QtSharedPointer33ExternalRefCountWithCustomDeleterIN5zxing4oned12Code93ReaderENS_13NormalDeleterEE7deleterEPNS_20ExternalRefCountDataE@Base 3.3.0
 (optional=templinst)_ZN15QtSharedPointer33ExternalRefCountWithCustomDeleterIN5zxing4oned13CodaBarReaderENS_13NormalDeleterEE7deleterEPNS_20ExternalRefCountDataE@Base 3.3.0
 (optional=templinst)_ZN15QtSharedPointer33ExternalRefCountWithCustomDeleterIN5zxing4oned13Code128ReaderENS_13NormalDeleterEE7deleterEPNS_20ExternalRefCountDataE@Base 3.3.0
 (optional=templinst)_ZN15QtSharedPointer33ExternalRefCountWithCustomDeleterIN5zxing4oned15OneDResultPointENS_13NormalDeleterEE7deleterEPNS_20ExternalRefCountDataE@Base 3.3.0
 (optional=templinst)_ZN15QtSharedPointer33ExternalRefCountWithCustomDeleterIN5zxing4oned21MultiFormatOneDReaderENS_13NormalDeleterEE7deleterEPNS_20ExternalRefCountDataE@Base 3.3.0
 (optional=templinst)_ZN15QtSharedPointer33ExternalRefCountWithCustomDeleterIN5zxing4oned23MultiFormatUPCEANReaderENS_13NormalDeleterEE7deleterEPNS_20ExternalRefCountDataE@Base 3.3.0
 (optional=templinst)_ZN15QtSharedPointer33ExternalRefCountWithCustomDeleterIN5zxing4oned3rss11RSS14ReaderENS_13NormalDeleterEE7deleterEPNS_20ExternalRefCountDataE@Base 3.3.0
 (optional=templinst)_ZN15QtSharedPointer33ExternalRefCountWithCustomDeleterIN5zxing4oned3rss12AnyAIDecoderENS_13NormalDeleterEE7deleterEPNS_20ExternalRefCountDataE@Base 3.3.0
 (optional=templinst)_ZN15QtSharedPointer33ExternalRefCountWithCustomDeleterIN5zxing4oned3rss13FinderPatternENS_13NormalDeleterEE7deleterEPNS_20ExternalRefCountDataE@Base 3.3.0
 (optional=templinst)_ZN15QtSharedPointer33ExternalRefCountWithCustomDeleterIN5zxing4oned3rss14DecodedNumericENS_13NormalDeleterEE7deleterEPNS_20ExternalRefCountDataE@Base 3.3.0
 (optional=templinst)_ZN15QtSharedPointer33ExternalRefCountWithCustomDeleterIN5zxing4oned3rss15AI013103decoderENS_13NormalDeleterEE7deleterEPNS_20ExternalRefCountDataE@Base 3.3.0
 (optional=templinst)_ZN15QtSharedPointer33ExternalRefCountWithCustomDeleterIN5zxing4oned3rss15AI01320xDecoderENS_13NormalDeleterEE7deleterEPNS_20ExternalRefCountDataE@Base 3.3.0
 (optional=templinst)_ZN15QtSharedPointer33ExternalRefCountWithCustomDeleterIN5zxing4oned3rss15AI01392xDecoderENS_13NormalDeleterEE7deleterEPNS_20ExternalRefCountDataE@Base 3.3.0
 (optional=templinst)_ZN15QtSharedPointer33ExternalRefCountWithCustomDeleterIN5zxing4oned3rss15AI01393xDecoderENS_13NormalDeleterEE7deleterEPNS_20ExternalRefCountDataE@Base 3.3.0
 (optional=templinst)_ZN15QtSharedPointer33ExternalRefCountWithCustomDeleterIN5zxing4oned3rss15AI01AndOtherAIsENS_13NormalDeleterEE7deleterEPNS_20ExternalRefCountDataE@Base 3.3.0
 (optional=templinst)_ZN15QtSharedPointer33ExternalRefCountWithCustomDeleterIN5zxing4oned3rss17AI013x0x1xDecoderENS_13NormalDeleterEE7deleterEPNS_20ExternalRefCountDataE@Base 3.3.0
 (optional=templinst)_ZN15QtSharedPointer33ExternalRefCountWithCustomDeleterIN5zxing4oned3rss17BlockParsedResultENS_13NormalDeleterEE7deleterEPNS_20ExternalRefCountDataE@Base 3.3.0
 (optional=templinst)_ZN15QtSharedPointer33ExternalRefCountWithCustomDeleterIN5zxing4oned3rss17RSSExpandedReaderENS_13NormalDeleterEE7deleterEPNS_20ExternalRefCountDataE@Base 3.3.0
 (optional=templinst)_ZN15QtSharedPointer33ExternalRefCountWithCustomDeleterIN5zxing4oned9ITFReaderENS_13NormalDeleterEE7deleterEPNS_20ExternalRefCountDataE@Base 3.3.0
 (optional=templinst)_ZN15QtSharedPointer33ExternalRefCountWithCustomDeleterIN5zxing5aztec11AztecReaderENS_13NormalDeleterEE7deleterEPNS_20ExternalRefCountDataE@Base 3.3.0
 (optional=templinst)_ZN15QtSharedPointer33ExternalRefCountWithCustomDeleterIN5zxing5aztec19AztecDetectorResultENS_13NormalDeleterEE7deleterEPNS_20ExternalRefCountDataE@Base 3.3.0
 (optional=templinst)_ZN15QtSharedPointer33ExternalRefCountWithCustomDeleterIN5zxing5aztec5PointENS_13NormalDeleterEE7deleterEPNS_20ExternalRefCountDataE@Base 3.3.0
 (optional=templinst)_ZN15QtSharedPointer33ExternalRefCountWithCustomDeleterIN5zxing6ResultENS_13NormalDeleterEE7deleterEPNS_20ExternalRefCountDataE@Base 3.3.0
 (optional=templinst)_ZN15QtSharedPointer33ExternalRefCountWithCustomDeleterIN5zxing6StringENS_13NormalDeleterEE7deleterEPNS_20ExternalRefCountDataE@Base 3.3.0
 (optional=templinst)_ZN15QtSharedPointer33ExternalRefCountWithCustomDeleterIN5zxing6pdf41712PDF417ReaderENS_13NormalDeleterEE7deleterEPNS_20ExternalRefCountDataE@Base 3.3.0
 (optional=templinst)_ZN15QtSharedPointer33ExternalRefCountWithCustomDeleterIN5zxing6pdf4177decoder2ec11ModulusPolyENS_13NormalDeleterEE7deleterEPNS_20ExternalRefCountDataE@Base 3.3.0
 (optional=templinst)_ZN15QtSharedPointer33ExternalRefCountWithCustomDeleterIN5zxing6pdf4177decoder2ec15ErrorCorrectionENS_13NormalDeleterEE7deleterEPNS_20ExternalRefCountDataE@Base 3.3.0
 (optional=templinst)_ZN15QtSharedPointer33ExternalRefCountWithCustomDeleterIN5zxing6qrcode10ByteMatrixENS_13NormalDeleterEE7deleterEPNS_20ExternalRefCountDataE@Base 3.3.0
 (optional=templinst)_ZN15QtSharedPointer33ExternalRefCountWithCustomDeleterIN5zxing6qrcode11DataMask000ENS_13NormalDeleterEE7deleterEPNS_20ExternalRefCountDataE@Base 3.3.0
 (optional=templinst)_ZN15QtSharedPointer33ExternalRefCountWithCustomDeleterIN5zxing6qrcode11DataMask001ENS_13NormalDeleterEE7deleterEPNS_20ExternalRefCountDataE@Base 3.3.0
 (optional=templinst)_ZN15QtSharedPointer33ExternalRefCountWithCustomDeleterIN5zxing6qrcode11DataMask010ENS_13NormalDeleterEE7deleterEPNS_20ExternalRefCountDataE@Base 3.3.0
 (optional=templinst)_ZN15QtSharedPointer33ExternalRefCountWithCustomDeleterIN5zxing6qrcode11DataMask011ENS_13NormalDeleterEE7deleterEPNS_20ExternalRefCountDataE@Base 3.3.0
 (optional=templinst)_ZN15QtSharedPointer33ExternalRefCountWithCustomDeleterIN5zxing6qrcode11DataMask100ENS_13NormalDeleterEE7deleterEPNS_20ExternalRefCountDataE@Base 3.3.0
 (optional=templinst)_ZN15QtSharedPointer33ExternalRefCountWithCustomDeleterIN5zxing6qrcode11DataMask101ENS_13NormalDeleterEE7deleterEPNS_20ExternalRefCountDataE@Base 3.3.0
 (optional=templinst)_ZN15QtSharedPointer33ExternalRefCountWithCustomDeleterIN5zxing6qrcode11DataMask110ENS_13NormalDeleterEE7deleterEPNS_20ExternalRefCountDataE@Base 3.3.0
 (optional=templinst)_ZN15QtSharedPointer33ExternalRefCountWithCustomDeleterIN5zxing6qrcode11DataMask111ENS_13NormalDeleterEE7deleterEPNS_20ExternalRefCountDataE@Base 3.3.0
 (optional=templinst)_ZN15QtSharedPointer33ExternalRefCountWithCustomDeleterIN5zxing6qrcode12QRCodeReaderENS_13NormalDeleterEE7deleterEPNS_20ExternalRefCountDataE@Base 3.3.0
 (optional=templinst)_ZN15QtSharedPointer33ExternalRefCountWithCustomDeleterIN5zxing6qrcode13FinderPatternENS_13NormalDeleterEE7deleterEPNS_20ExternalRefCountDataE@Base 3.3.0
 (optional=templinst)_ZN15QtSharedPointer33ExternalRefCountWithCustomDeleterIN5zxing6qrcode16AlignmentPatternENS_13NormalDeleterEE7deleterEPNS_20ExternalRefCountDataE@Base 3.3.0
 (optional=templinst)_ZN15QtSharedPointer33ExternalRefCountWithCustomDeleterIN5zxing6qrcode17FinderPatternInfoENS_13NormalDeleterEE7deleterEPNS_20ExternalRefCountDataE@Base 3.3.0
 (optional=templinst)_ZN15QtSharedPointer33ExternalRefCountWithCustomDeleterIN5zxing6qrcode17FormatInformationENS_13NormalDeleterEE7deleterEPNS_20ExternalRefCountDataE@Base 3.3.0
 (optional=templinst)_ZN15QtSharedPointer33ExternalRefCountWithCustomDeleterIN5zxing6qrcode20ErrorCorrectionLevelENS_13NormalDeleterEE7deleterEPNS_20ExternalRefCountDataE@Base 3.3.0
 (optional=templinst)_ZN15QtSharedPointer33ExternalRefCountWithCustomDeleterIN5zxing6qrcode6QRCodeENS_13NormalDeleterEE7deleterEPNS_20ExternalRefCountDataE@Base 3.3.0
 (optional=templinst)_ZN15QtSharedPointer33ExternalRefCountWithCustomDeleterIN5zxing6qrcode7VersionENS_13NormalDeleterEE7deleterEPNS_20ExternalRefCountDataE@Base 3.3.0
 (optional=templinst)_ZN15QtSharedPointer33ExternalRefCountWithCustomDeleterIN5zxing6qrcode9DataBlockENS_13NormalDeleterEE7deleterEPNS_20ExternalRefCountDataE@Base 3.3.0
 (optional=templinst)_ZN15QtSharedPointer33ExternalRefCountWithCustomDeleterIN5zxing7TwoIntsENS_13NormalDeleterEE7deleterEPNS_20ExternalRefCountDataE@Base 3.3.0
 (optional=templinst)_ZN15QtSharedPointer33ExternalRefCountWithCustomDeleterIN5zxing8BitArrayENS_13NormalDeleterEE7deleterEPNS_20ExternalRefCountDataE@Base 3.3.0
 (optional=templinst)_ZN15QtSharedPointer33ExternalRefCountWithCustomDeleterIN5zxing9BitMatrixENS_13NormalDeleterEE7deleterEPNS_20ExternalRefCountDataE@Base 3.3.0
 (optional=templinst)_ZN15QtSharedPointer33ExternalRefCountWithCustomDeleterIN5zxing9BitSourceENS_13NormalDeleterEE7deleterEPNS_20ExternalRefCountDataE@Base 3.3.0
 (optional=templinst)_ZN15QtSharedPointer33ExternalRefCountWithCustomDeleterIN5zxing9GenericGFENS_13NormalDeleterEE7deleterEPNS_20ExternalRefCountDataE@Base 3.3.0
 (optional=templinst)_ZN15QtSharedPointer33ExternalRefCountWithCustomDeleterISt6vectorI10BigIntegerSaIS2_EENS_13NormalDeleterEE7deleterEPNS_20ExternalRefCountDataE@Base 3.3.0
 (optional=templinst)_ZN15QtSharedPointer33ExternalRefCountWithCustomDeleterISt6vectorI14QSharedPointerIN5zxing11ResultPointEESaIS5_EENS_13NormalDeleterEE7deleterEPNS_20ExternalRefCountDataE@Base 3.3.0
 (optional=templinst)_ZN15QtSharedPointer33ExternalRefCountWithCustomDeleterISt6vectorI14QSharedPointerIS1_IhSaIhEEESaIS5_EENS_13NormalDeleterEE7deleterEPNS_20ExternalRefCountDataE@Base 3.3.0
 (optional=templinst)_ZN15QtSharedPointer33ExternalRefCountWithCustomDeleterISt6vectorIhSaIhEENS_13NormalDeleterEE7deleterEPNS_20ExternalRefCountDataE@Base 3.3.0
 (optional=templinst)_ZN15QtSharedPointer33ExternalRefCountWithCustomDeleterISt6vectorIiSaIiEENS_13NormalDeleterEE7deleterEPNS_20ExternalRefCountDataE@Base 3.3.0
 (optional=templinst)_ZN16QFutureInterfaceIvED0Ev@Base 3.3.0
 (optional=templinst)_ZN16QFutureInterfaceIvED1Ev@Base 3.3.0
 (optional=templinst)_ZN16QFutureInterfaceIvED2Ev@Base 3.3.0
 _ZN16SimpleVideoFrame8copyDataER11QVideoFrame@Base 3.3.0
 (optional=templinst)_ZN17QtMetaTypePrivate23QMetaTypeFunctionHelperI16QQmlListPropertyI12QZXingFilterELb1EE8DestructEPv@Base 3.3.0
 (optional=templinst)_ZN17QtMetaTypePrivate23QMetaTypeFunctionHelperI16QQmlListPropertyI12QZXingFilterELb1EE9ConstructEPvPKv@Base 3.3.0
 (optional=templinst)_ZN17QtMetaTypePrivate23QMetaTypeFunctionHelperI16QQmlListPropertyI6QZXingELb1EE8DestructEPv@Base 3.3.0
 (optional=templinst)_ZN17QtMetaTypePrivate23QMetaTypeFunctionHelperI16QQmlListPropertyI6QZXingELb1EE9ConstructEPvPKv@Base 3.3.0
 (optional=templinst)_ZN17QtMetaTypePrivate23QMetaTypeFunctionHelperIP12QZXingFilterLb1EE8DestructEPv@Base 3.3.0
 (optional=templinst)_ZN17QtMetaTypePrivate23QMetaTypeFunctionHelperIP12QZXingFilterLb1EE9ConstructEPvPKv@Base 3.3.0
 (optional=templinst)_ZN17QtMetaTypePrivate23QMetaTypeFunctionHelperIP6QZXingLb1EE8DestructEPv@Base 3.3.0
 (optional=templinst)_ZN17QtMetaTypePrivate23QMetaTypeFunctionHelperIP6QZXingLb1EE9ConstructEPvPKv@Base 3.3.0
 _ZN18BigUnsignedInABaseC1EPKtjt@Base 3.3.0
 _ZN18BigUnsignedInABaseC1ERK11BigUnsignedt@Base 3.3.0
 _ZN18BigUnsignedInABaseC1ERKNSt7__cxx1112basic_stringIcSt11char_traitsIcESaIcEEEt@Base 3.3.0
 _ZN18BigUnsignedInABaseC2EPKtjt@Base 3.3.0
 _ZN18BigUnsignedInABaseC2ERK11BigUnsignedt@Base 3.3.0
 _ZN18BigUnsignedInABaseC2ERKNSt7__cxx1112basic_stringIcSt11char_traitsIcESaIcEEEt@Base 3.3.0
 _ZN18CameraImageWrapper14B_TO_GREYSCALEE@Base 3.3.0
 _ZN18CameraImageWrapper14G_TO_GREYSCALEE@Base 3.3.0
 _ZN18CameraImageWrapper14R_TO_GREYSCALEE@Base 3.3.0
 _ZN18CameraImageWrapper16getOriginalImageEv@Base 3.3.0
 _ZN18CameraImageWrapper22updateImageAsGrayscaleERK6QImage@Base 3.3.0
 _ZN18CameraImageWrapper7FactoryERK6QImageiib@Base 3.3.0
 _ZN18CameraImageWrapperC1ERK6QImage@Base 3.3.0
 _ZN18CameraImageWrapperC1ERS_@Base 3.3.0
 _ZN18CameraImageWrapperC1Ev@Base 3.3.0
 _ZN18CameraImageWrapperC2ERK6QImage@Base 3.3.0
 _ZN18CameraImageWrapperC2ERS_@Base 3.3.0
 _ZN18CameraImageWrapperC2Ev@Base 3.3.0
 _ZN18CameraImageWrapperD0Ev@Base 3.3.0
 _ZN18CameraImageWrapperD1Ev@Base 3.3.0
 _ZN18CameraImageWrapperD2Ev@Base 3.3.0
 (optional=templinst)_ZN18QMetaTypeIdQObjectIP6QZXingLi8EE14qt_metatype_idEv@Base 3.3.0
 _ZN19QZXingImageProvider12requestImageERK7QStringP5QSizeRKS3_@Base 3.3.0
 _ZN19QZXingImageProviderC1Ev@Base 3.3.0
 _ZN19QZXingImageProviderC2Ev@Base 3.3.0
 _ZN19QZXingImageProviderD0Ev@Base 3.3.0
 _ZN19QZXingImageProviderD1Ev@Base 3.3.0
 _ZN19QZXingImageProviderD2Ev@Base 3.3.0
 _ZN20QZXingFilterRunnable11qt_metacallEN11QMetaObject4CallEiPPv@Base 3.3.0
 _ZN20QZXingFilterRunnable11qt_metacastEPKc@Base 3.3.0
 _ZN20QZXingFilterRunnable16staticMetaObjectE@Base 3.3.0
 _ZN20QZXingFilterRunnable23processVideoFrameProbedER16SimpleVideoFrameRK5QRect@Base 3.3.0
 _ZN20QZXingFilterRunnable3runEP11QVideoFrameRK19QVideoSurfaceFormat6QFlagsIN20QVideoFilterRunnable7RunFlagEE@Base 3.3.0
 _ZN20QZXingFilterRunnable6decodeERK6QImage@Base 3.3.0
 _ZN20QZXingFilterRunnableC1EP12QZXingFilter@Base 3.3.0
 _ZN20QZXingFilterRunnableC2EP12QZXingFilter@Base 3.3.0
 _ZN20QZXingFilterRunnableD0Ev@Base 3.3.0
 _ZN20QZXingFilterRunnableD1Ev@Base 3.3.0
 _ZN20QZXingFilterRunnableD2Ev@Base 3.3.0
 (optional=templinst)_ZN4QMapI7QString8QVariantE13detach_helperEv@Base 3.3.0
 (optional=templinst)_ZN4QMapI7QString8QVariantED1Ev@Base 3.3.0
 (optional=templinst)_ZN4QMapI7QString8QVariantED2Ev@Base 3.3.0
 (optional=templinst)_ZN4QMapI7QString8QVariantEixERKS0_@Base 3.3.0
 (optional=templinst)_ZN5QHashIP7QObject15QHashDummyValueE11deleteNode2EPN9QHashData4NodeE@Base 3.3.0
 (optional=templinst)_ZN5QHashIP7QObject15QHashDummyValueE13detach_helperEv@Base 3.3.0
 (optional=templinst)_ZN5QHashIP7QObject15QHashDummyValueE13duplicateNodeEPN9QHashData4NodeEPv@Base 3.3.0
 (optional=templinst)_ZN5QListI8QVariantE18detach_helper_growEii@Base 3.3.0
 (optional=templinst)_ZN5QListI8QVariantE6appendERKS0_@Base 3.3.0
 (optional=templinst)_ZN5QListI8QVariantED1Ev@Base 3.3.0
 (optional=templinst)_ZN5QListI8QVariantED2Ev@Base 3.3.0
 _ZN5zxing10EncodeHintC1Ev@Base 3.3.0
 _ZN5zxing10EncodeHintC2Ev@Base 3.3.0
 _ZN5zxing10datamatrix11CornerPoint14incrementCountEv@Base 3.3.0
 _ZN5zxing10datamatrix11CornerPointC1Eff@Base 3.3.0
 _ZN5zxing10datamatrix11CornerPointC2Eff@Base 3.3.0
 _ZN5zxing10datamatrix11CornerPointD0Ev@Base 3.3.0
 _ZN5zxing10datamatrix11CornerPointD1Ev@Base 3.3.0
 _ZN5zxing10datamatrix11CornerPointD2Ev@Base 3.3.0
 _ZN5zxing10datamatrix15BitMatrixParser10readModuleEiiii@Base 3.3.0
 _ZN5zxing10datamatrix15BitMatrixParser11readCorner1Eii@Base 3.3.0
 _ZN5zxing10datamatrix15BitMatrixParser11readCorner2Eii@Base 3.3.0
 _ZN5zxing10datamatrix15BitMatrixParser11readCorner3Eii@Base 3.3.0
 _ZN5zxing10datamatrix15BitMatrixParser11readCorner4Eii@Base 3.3.0
 _ZN5zxing10datamatrix15BitMatrixParser11readVersionE14QSharedPointerINS_9BitMatrixEE@Base 3.3.0
 _ZN5zxing10datamatrix15BitMatrixParser13readCodewordsEv@Base 3.3.0
 _ZN5zxing10datamatrix15BitMatrixParser17extractDataRegionE14QSharedPointerINS_9BitMatrixEE@Base 3.3.0
 (subst)_ZN5zxing10datamatrix15BitMatrixParser7copyBitE{size_t}{size_t}i@Base 3.3.0
 _ZN5zxing10datamatrix15BitMatrixParser8readUtahEiiii@Base 3.3.0
 _ZN5zxing10datamatrix15BitMatrixParserC1E14QSharedPointerINS_9BitMatrixEE@Base 3.3.0
 _ZN5zxing10datamatrix15BitMatrixParserC2E14QSharedPointerINS_9BitMatrixEE@Base 3.3.0
 _ZN5zxing10datamatrix15BitMatrixParserD1Ev@Base 3.3.0
 _ZN5zxing10datamatrix15BitMatrixParserD2Ev@Base 3.3.0
 _ZN5zxing10datamatrix16DataMatrixReader6decodeE14QSharedPointerINS_12BinaryBitmapEENS_11DecodeHintsE@Base 3.3.0
 _ZN5zxing10datamatrix16DataMatrixReaderC1Ev@Base 3.3.0
 _ZN5zxing10datamatrix16DataMatrixReaderC2Ev@Base 3.3.0
 _ZN5zxing10datamatrix16DataMatrixReaderD0Ev@Base 3.3.0
 _ZN5zxing10datamatrix16DataMatrixReaderD1Ev@Base 3.3.0
 _ZN5zxing10datamatrix16DataMatrixReaderD2Ev@Base 3.3.0
 _ZN5zxing10datamatrix17DetectorExceptionC1EPKc@Base 3.3.0
 _ZN5zxing10datamatrix17DetectorExceptionC2EPKc@Base 3.3.0
 _ZN5zxing10datamatrix17DetectorExceptionD0Ev@Base 3.3.0
 _ZN5zxing10datamatrix17DetectorExceptionD1Ev@Base 3.3.0
 _ZN5zxing10datamatrix17DetectorExceptionD2Ev@Base 3.3.0
 _ZN5zxing10datamatrix22DecodedBitStreamParser13parseTwoBytesEiiPi@Base 3.3.0
 _ZN5zxing10datamatrix22DecodedBitStreamParser16decodeC40SegmentE14QSharedPointerINS_9BitSourceEERNSt7__cxx1119basic_ostringstreamIcSt11char_traitsIcESaIcEEE@Base 3.3.0
 _ZN5zxing10datamatrix22DecodedBitStreamParser17decodeTextSegmentE14QSharedPointerINS_9BitSourceEERNSt7__cxx1119basic_ostringstreamIcSt11char_traitsIcESaIcEEE@Base 3.3.0
 _ZN5zxing10datamatrix22DecodedBitStreamParser18decodeAsciiSegmentE14QSharedPointerINS_9BitSourceEERNSt7__cxx1119basic_ostringstreamIcSt11char_traitsIcESaIcEEESB_@Base 3.3.0
 _ZN5zxing10datamatrix22DecodedBitStreamParser19C40_BASIC_SET_CHARSE@Base 3.3.0
 _ZN5zxing10datamatrix22DecodedBitStreamParser20C40_SHIFT2_SET_CHARSE@Base 3.3.0
 _ZN5zxing10datamatrix22DecodedBitStreamParser20TEXT_BASIC_SET_CHARSE@Base 3.3.0
 _ZN5zxing10datamatrix22DecodedBitStreamParser20decodeAnsiX12SegmentE14QSharedPointerINS_9BitSourceEERNSt7__cxx1119basic_ostringstreamIcSt11char_traitsIcESaIcEEE@Base 3.3.0
 _ZN5zxing10datamatrix22DecodedBitStreamParser20decodeBase256SegmentE14QSharedPointerINS_9BitSourceEERNSt7__cxx1119basic_ostringstreamIcSt11char_traitsIcESaIcEEESt6vectorIhSaIhEE@Base 3.3.0
 _ZN5zxing10datamatrix22DecodedBitStreamParser20decodeEdifactSegmentE14QSharedPointerINS_9BitSourceEERNSt7__cxx1119basic_ostringstreamIcSt11char_traitsIcESaIcEEE@Base 3.3.0
 _ZN5zxing10datamatrix22DecodedBitStreamParser21TEXT_SHIFT3_SET_CHARSE@Base 3.3.0
 _ZN5zxing10datamatrix22DecodedBitStreamParser6decodeE14QSharedPointerISt6vectorIhSaIhEEE@Base 3.3.0
 _ZN5zxing10datamatrix26ResultPointsAndTransitions14getTransitionsEv@Base 3.3.0
 _ZN5zxing10datamatrix26ResultPointsAndTransitions5getToEv@Base 3.3.0
 _ZN5zxing10datamatrix26ResultPointsAndTransitions7getFromEv@Base 3.3.0
 _ZN5zxing10datamatrix26ResultPointsAndTransitionsC1E14QSharedPointerINS_11ResultPointEES4_i@Base 3.3.0
 _ZN5zxing10datamatrix26ResultPointsAndTransitionsC1Ev@Base 3.3.0
 _ZN5zxing10datamatrix26ResultPointsAndTransitionsC2E14QSharedPointerINS_11ResultPointEES4_i@Base 3.3.0
 _ZN5zxing10datamatrix26ResultPointsAndTransitionsC2Ev@Base 3.3.0
 _ZN5zxing10datamatrix3ECB16getDataCodewordsEv@Base 3.3.0
 _ZN5zxing10datamatrix3ECB8getCountEv@Base 3.3.0
 _ZN5zxing10datamatrix3ECBC1Eii@Base 3.3.0
 _ZN5zxing10datamatrix3ECBC2Eii@Base 3.3.0
 _ZN5zxing10datamatrix7Decoder13correctErrorsE14QSharedPointerISt6vectorIhSaIhEEEi@Base 3.3.0
 _ZN5zxing10datamatrix7Decoder6decodeE14QSharedPointerINS_9BitMatrixEE@Base 3.3.0
 _ZN5zxing10datamatrix7DecoderC1Ev@Base 3.3.0
 _ZN5zxing10datamatrix7DecoderC2Ev@Base 3.3.0
 _ZN5zxing10datamatrix7Version13buildVersionsEv@Base 3.3.0
 _ZN5zxing10datamatrix7Version23getVersionForDimensionsEii@Base 3.3.0
 _ZN5zxing10datamatrix7Version8VERSIONSE@Base 3.3.0
 _ZN5zxing10datamatrix7VersionC1EiiiiiPNS0_8ECBlocksE@Base 3.3.0
 _ZN5zxing10datamatrix7VersionC2EiiiiiPNS0_8ECBlocksE@Base 3.3.0
 _ZN5zxing10datamatrix7VersionD1Ev@Base 3.3.0
 _ZN5zxing10datamatrix7VersionD2Ev@Base 3.3.0
 _ZN5zxing10datamatrix8Detector10sampleGridE14QSharedPointerINS_9BitMatrixEEiiS2_INS_20PerspectiveTransformEE@Base 3.3.0
 _ZN5zxing10datamatrix8Detector13insertionSortERSt6vectorI14QSharedPointerINS0_26ResultPointsAndTransitionsEESaIS5_EE@Base 3.3.0
 _ZN5zxing10datamatrix8Detector15correctTopRightE14QSharedPointerINS_11ResultPointEES4_S4_S4_i@Base 3.3.0
 _ZN5zxing10datamatrix8Detector15createTransformE14QSharedPointerINS_11ResultPointEES4_S4_S4_ii@Base 3.3.0
 _ZN5zxing10datamatrix8Detector18transitionsBetweenE14QSharedPointerINS_11ResultPointEES4_@Base 3.3.0
 _ZN5zxing10datamatrix8Detector26correctTopRightRectangularE14QSharedPointerINS_11ResultPointEES4_S4_S4_ii@Base 3.3.0
 _ZN5zxing10datamatrix8Detector6detectEv@Base 3.3.0
 _ZN5zxing10datamatrix8Detector7compareE14QSharedPointerINS0_26ResultPointsAndTransitionsEES4_@Base 3.3.0
 _ZN5zxing10datamatrix8Detector7isValidE14QSharedPointerINS_11ResultPointEE@Base 3.3.0
 _ZN5zxing10datamatrix8Detector8distanceE14QSharedPointerINS_11ResultPointEES4_@Base 3.3.0
 _ZN5zxing10datamatrix8Detector8getImageEv@Base 3.3.0
 _ZN5zxing10datamatrix8DetectorC1E14QSharedPointerINS_9BitMatrixEE@Base 3.3.0
 _ZN5zxing10datamatrix8DetectorC2E14QSharedPointerINS_9BitMatrixEE@Base 3.3.0
 _ZN5zxing10datamatrix8ECBlocks11getECBlocksEv@Base 3.3.0
 _ZN5zxing10datamatrix8ECBlocks14getECCodewordsEv@Base 3.3.0
 _ZN5zxing10datamatrix8ECBlocksC1EiPNS0_3ECBE@Base 3.3.0
 _ZN5zxing10datamatrix8ECBlocksC1EiPNS0_3ECBES3_@Base 3.3.0
 _ZN5zxing10datamatrix8ECBlocksC2EiPNS0_3ECBE@Base 3.3.0
 _ZN5zxing10datamatrix8ECBlocksC2EiPNS0_3ECBES3_@Base 3.3.0
 _ZN5zxing10datamatrix8ECBlocksD1Ev@Base 3.3.0
 _ZN5zxing10datamatrix8ECBlocksD2Ev@Base 3.3.0
 _ZN5zxing10datamatrix9DataBlock12getCodewordsEv@Base 3.3.0
 _ZN5zxing10datamatrix9DataBlock13getDataBlocksE14QSharedPointerISt6vectorIhSaIhEEES2_INS0_7VersionEE@Base 3.3.0
 _ZN5zxing10datamatrix9DataBlock19getNumDataCodewordsEv@Base 3.3.0
 _ZN5zxing10datamatrix9DataBlockC1Ei14QSharedPointerISt6vectorIhSaIhEEE@Base 3.3.0
 _ZN5zxing10datamatrix9DataBlockC2Ei14QSharedPointerISt6vectorIhSaIhEEE@Base 3.3.0
 _ZN5zxing11DecodeHints10ASSUME_GS1E@Base 3.3.0
 _ZN5zxing11DecodeHints10AZTEC_HINTE@Base 3.3.0
 _ZN5zxing11DecodeHints10EAN_8_HINTE@Base 3.3.0
 _ZN5zxing11DecodeHints10UPC_A_HINTE@Base 3.3.0
 _ZN5zxing11DecodeHints10UPC_E_HINTE@Base 3.3.0
 _ZN5zxing11DecodeHints11EAN_13_HINTE@Base 3.3.0
 _ZN5zxing11DecodeHints11RSS_14_HINTE@Base 3.3.0
 _ZN5zxing11DecodeHints12CODABAR_HINTE@Base 3.3.0
 _ZN5zxing11DecodeHints12CODE_39_HINTE@Base 3.3.0
 _ZN5zxing11DecodeHints12CODE_93_HINTE@Base 3.3.0
 _ZN5zxing11DecodeHints12DEFAULT_HINTE@Base 3.3.0
 _ZN5zxing11DecodeHints12PDF_417_HINTE@Base 3.3.0
 _ZN5zxing11DecodeHints12PRODUCT_HINTE@Base 3.3.0
 _ZN5zxing11DecodeHints12QR_CODE_HINTE@Base 3.3.0
 _ZN5zxing11DecodeHints12setTryHarderEb@Base 3.3.0
 _ZN5zxing11DecodeHints13CHARACTER_SETE@Base 3.3.0
 _ZN5zxing11DecodeHints13CODE_128_HINTE@Base 3.3.0
 _ZN5zxing11DecodeHints13MAXICODE_HINTE@Base 3.3.0
 _ZN5zxing11DecodeHints14TRYHARDER_HINTE@Base 3.3.0
 _ZN5zxing11DecodeHints16DATA_MATRIX_HINTE@Base 3.3.0
 _ZN5zxing11DecodeHints17RSS_EXPANDED_HINTE@Base 3.3.0
 _ZN5zxing11DecodeHints22UPC_EAN_EXTENSION_HINTE@Base 3.3.0
 _ZN5zxing11DecodeHints22setResultPointCallbackERK14QSharedPointerINS_19ResultPointCallbackEE@Base 3.3.0
 _ZN5zxing11DecodeHints23setAllowedEanExtensionsESt3setIiSt4lessIiESaIiEE@Base 3.3.0
 _ZN5zxing11DecodeHints8ITF_HINTE@Base 3.3.0
 _ZN5zxing11DecodeHints9ONED_HINTE@Base 3.3.0
 _ZN5zxing11DecodeHints9addFormatENS_13BarcodeFormatE@Base 3.3.0
 _ZN5zxing11DecodeHintsC1ERKS0_@Base 3.3.0
 _ZN5zxing11DecodeHintsC1ERKj@Base 3.3.0
 _ZN5zxing11DecodeHintsC1Ev@Base 3.3.0
 _ZN5zxing11DecodeHintsC2ERKS0_@Base 3.3.0
 _ZN5zxing11DecodeHintsC2ERKj@Base 3.3.0
 _ZN5zxing11DecodeHintsC2Ev@Base 3.3.0
 _ZN5zxing11DecodeHintsD1Ev@Base 3.3.0
 _ZN5zxing11DecodeHintsD2Ev@Base 3.3.0
 _ZN5zxing11DecodeHintsaSERKS0_@Base 3.3.0
 _ZN5zxing11GridSampler10sampleGridE14QSharedPointerINS_9BitMatrixEEiS1_INS_20PerspectiveTransformEE@Base 3.3.0
 _ZN5zxing11GridSampler10sampleGridE14QSharedPointerINS_9BitMatrixEEiffffffffffffffff@Base 3.3.0
 _ZN5zxing11GridSampler10sampleGridE14QSharedPointerINS_9BitMatrixEEiiS1_INS_20PerspectiveTransformEE@Base 3.3.0
 _ZN5zxing11GridSampler11getInstanceEv@Base 3.3.0
 _ZN5zxing11GridSampler11gridSamplerE@Base 3.3.0
 _ZN5zxing11GridSampler19checkAndNudgePointsE14QSharedPointerINS_9BitMatrixEERSt6vectorIfSaIfEE@Base 3.3.0
 _ZN5zxing11GridSamplerC1Ev@Base 3.3.0
 _ZN5zxing11GridSamplerC2Ev@Base 3.3.0
 _ZN5zxing11ResultPoint13crossProductZE14QSharedPointerIS0_ES2_S2_@Base 3.3.0
 _ZN5zxing11ResultPoint17orderBestPatternsERSt6vectorI14QSharedPointerIS0_ESaIS3_EE@Base 3.3.0
 _ZN5zxing11ResultPoint6equalsERK14QSharedPointerIS0_E@Base 3.3.0
 _ZN5zxing11ResultPoint8distanceE14QSharedPointerIS0_ES2_@Base 3.3.0
 _ZN5zxing11ResultPoint8distanceEffff@Base 3.3.0
 _ZN5zxing11ResultPointC1Eff@Base 3.3.0
 _ZN5zxing11ResultPointC1Eii@Base 3.3.0
 _ZN5zxing11ResultPointC1Ev@Base 3.3.0
 _ZN5zxing11ResultPointC2Eff@Base 3.3.0
 _ZN5zxing11ResultPointC2Eii@Base 3.3.0
 _ZN5zxing11ResultPointC2Ev@Base 3.3.0
 _ZN5zxing11ResultPointD0Ev@Base 3.3.0
 _ZN5zxing11ResultPointD1Ev@Base 3.3.0
 _ZN5zxing11ResultPointD2Ev@Base 3.3.0
 _ZN5zxing12BinaryBitmap11getBlackRowEi14QSharedPointerINS_8BitArrayEE@Base 3.3.0
 _ZN5zxing12BinaryBitmap14getBlackMatrixEv@Base 3.3.0
 _ZN5zxing12BinaryBitmap22rotateCounterClockwiseEv@Base 3.3.0
 _ZN5zxing12BinaryBitmap24rotateCounterClockwise45Ev@Base 3.3.0
 _ZN5zxing12BinaryBitmap4cropEiiii@Base 3.3.0
 _ZN5zxing12BinaryBitmapC1E14QSharedPointerINS_9BinarizerEE@Base 3.3.0
 _ZN5zxing12BinaryBitmapC2E14QSharedPointerINS_9BinarizerEE@Base 3.3.0
 _ZN5zxing12BinaryBitmapD0Ev@Base 3.3.0
 _ZN5zxing12BinaryBitmapD1Ev@Base 3.3.0
 _ZN5zxing12BinaryBitmapD2Ev@Base 3.3.0
 _ZN5zxing13BarcodeFormat18barcodeFormatNamesE@Base 3.3.0
 _ZN5zxing13DecoderResult11getRawBytesEv@Base 3.3.0
 _ZN5zxing13DecoderResult7charSetB5cxx11Ev@Base 3.3.0
 _ZN5zxing13DecoderResult7getTextEv@Base 3.3.0
 _ZN5zxing13DecoderResultC1E14QSharedPointerISt6vectorIhSaIhEEES1_INS_6StringEE@Base 3.3.0
 _ZN5zxing13DecoderResultC1E14QSharedPointerISt6vectorIhSaIhEEES1_INS_6StringEERS1_IS2_IS5_SaIS5_EEERKNSt7__cxx1112basic_stringIcSt11char_traitsIcESaIcEEESH_@Base 3.3.0
 _ZN5zxing13DecoderResultC2E14QSharedPointerISt6vectorIhSaIhEEES1_INS_6StringEE@Base 3.3.0
 _ZN5zxing13DecoderResultC2E14QSharedPointerISt6vectorIhSaIhEEES1_INS_6StringEERS1_IS2_IS5_SaIS5_EEERKNSt7__cxx1112basic_stringIcSt11char_traitsIcESaIcEEESH_@Base 3.3.0
 _ZN5zxing13GenericGFPoly10evaluateAtEi@Base 3.3.0
 _ZN5zxing13GenericGFPoly13addOrSubtractE14QSharedPointerIS0_E@Base 3.3.0
 _ZN5zxing13GenericGFPoly14getCoefficientEi@Base 3.3.0
 _ZN5zxing13GenericGFPoly15getCoefficientsEv@Base 3.3.0
 _ZN5zxing13GenericGFPoly18multiplyByMonomialEii@Base 3.3.0
 _ZN5zxing13GenericGFPoly6divideE14QSharedPointerIS0_E@Base 3.3.0
 _ZN5zxing13GenericGFPoly6isZeroEv@Base 3.3.0
 _ZN5zxing13GenericGFPoly8multiplyE14QSharedPointerIS0_E@Base 3.3.0
 _ZN5zxing13GenericGFPoly8multiplyEi@Base 3.3.0
 _ZN5zxing13GenericGFPoly9getDegreeEv@Base 3.3.0
 _ZN5zxing13GenericGFPolyC1EPNS_9GenericGFE14QSharedPointerISt6vectorIiSaIiEEE@Base 3.3.0
 _ZN5zxing13GenericGFPolyC2EPNS_9GenericGFE14QSharedPointerISt6vectorIiSaIiEEE@Base 3.3.0
 _ZN5zxing14DetectorResult7getBitsEv@Base 3.3.0
 _ZN5zxing14DetectorResult9getPointsEv@Base 3.3.0
 _ZN5zxing14DetectorResultC1E14QSharedPointerINS_9BitMatrixEES1_ISt6vectorIS1_INS_11ResultPointEESaIS6_EEE@Base 3.3.0
 _ZN5zxing14DetectorResultC2E14QSharedPointerINS_9BitMatrixEES1_ISt6vectorIS1_INS_11ResultPointEESaIS6_EEE@Base 3.3.0
 _ZN5zxing14ResultMetadata11StringValueD0Ev@Base 3.3.0
 _ZN5zxing14ResultMetadata11StringValueD1Ev@Base 3.3.0
 _ZN5zxing14ResultMetadata11StringValueD2Ev@Base 3.3.0
 _ZN5zxing14ResultMetadata12IntegerValueD0Ev@Base 3.3.0
 _ZN5zxing14ResultMetadata12IntegerValueD1Ev@Base 3.3.0
 _ZN5zxing14ResultMetadata12IntegerValueD2Ev@Base 3.3.0
 _ZN5zxing14ResultMetadata3putENS0_3KeyERKNSt7__cxx1112basic_stringIcSt11char_traitsIcESaIcEEE@Base 3.3.0
 _ZN5zxing14ResultMetadata3putENS0_3KeyEi@Base 3.3.0
 _ZN5zxing14ResultMetadata6putAllERKS0_@Base 3.3.0
 _ZN5zxing15FormatException17getFormatInstanceEv@Base 3.3.0
 _ZN5zxing15FormatExceptionC1EPKc@Base 3.3.0
 _ZN5zxing15FormatExceptionC1Ev@Base 3.3.0
 _ZN5zxing15FormatExceptionC2EPKc@Base 3.3.0
 _ZN5zxing15FormatExceptionC2Ev@Base 3.3.0
 _ZN5zxing15FormatExceptionD0Ev@Base 3.3.0
 _ZN5zxing15FormatExceptionD1Ev@Base 3.3.0
 _ZN5zxing15FormatExceptionD2Ev@Base 3.3.0
 _ZN5zxing15HybridBinarizer14getBlackMatrixEv@Base 3.3.0
 _ZN5zxing15HybridBinarizer14thresholdBlockE14QSharedPointerISt6vectorIhSaIhEEEiiiiRKS1_INS_9BitMatrixEE@Base 3.3.0
 _ZN5zxing15HybridBinarizer15createBinarizerE14QSharedPointerINS_15LuminanceSourceEE@Base 3.3.0
 _ZN5zxing15HybridBinarizer20calculateBlackPointsE14QSharedPointerISt6vectorIhSaIhEEEiiii@Base 3.3.0
 _ZN5zxing15HybridBinarizer26calculateThresholdForBlockE14QSharedPointerISt6vectorIhSaIhEEEiiiiS1_IS2_IiSaIiEEERKS1_INS_9BitMatrixEE@Base 3.3.0
 _ZN5zxing15HybridBinarizerC1E14QSharedPointerINS_15LuminanceSourceEE@Base 3.3.0
 _ZN5zxing15HybridBinarizerC2E14QSharedPointerINS_15LuminanceSourceEE@Base 3.3.0
 _ZN5zxing15HybridBinarizerD0Ev@Base 3.3.0
 _ZN5zxing15HybridBinarizerD1Ev@Base 3.3.0
 _ZN5zxing15HybridBinarizerD2Ev@Base 3.3.0
 _ZN5zxing15LuminanceSourceC1Eii@Base 3.3.0
 _ZN5zxing15LuminanceSourceC2Eii@Base 3.3.0
 _ZN5zxing15LuminanceSourceD0Ev@Base 3.3.0
 _ZN5zxing15LuminanceSourceD1Ev@Base 3.3.0
 _ZN5zxing15LuminanceSourceD2Ev@Base 3.3.0
 _ZN5zxing15ReaderExceptionC1EPKc@Base 3.3.0
 _ZN5zxing15ReaderExceptionC1Ev@Base 3.3.0
 _ZN5zxing15ReaderExceptionC2EPKc@Base 3.3.0
 _ZN5zxing15ReaderExceptionC2Ev@Base 3.3.0
 _ZN5zxing15ReaderExceptionD0Ev@Base 3.3.0
 _ZN5zxing15ReaderExceptionD1Ev@Base 3.3.0
 _ZN5zxing15ReaderExceptionD2Ev@Base 3.3.0
 _ZN5zxing15WriterExceptionC1EPKc@Base 3.3.0
 _ZN5zxing15WriterExceptionC1Ev@Base 3.3.0
 _ZN5zxing15WriterExceptionC2EPKc@Base 3.3.0
 _ZN5zxing15WriterExceptionC2Ev@Base 3.3.0
 _ZN5zxing15WriterExceptionD0Ev@Base 3.3.0
 _ZN5zxing15WriterExceptionD1Ev@Base 3.3.0
 _ZN5zxing15WriterExceptionD2Ev@Base 3.3.0
 _ZN5zxing17ChecksumExceptionC1EPKc@Base 3.3.0
 _ZN5zxing17ChecksumExceptionC1Ev@Base 3.3.0
 _ZN5zxing17ChecksumExceptionC2EPKc@Base 3.3.0
 _ZN5zxing17ChecksumExceptionC2Ev@Base 3.3.0
 _ZN5zxing17ChecksumExceptionD0Ev@Base 3.3.0
 _ZN5zxing17ChecksumExceptionD1Ev@Base 3.3.0
 _ZN5zxing17ChecksumExceptionD2Ev@Base 3.3.0
 _ZN5zxing17MultiFormatReader13enableReadersENS_11DecodeHintsEb@Base 3.3.0
 _ZN5zxing17MultiFormatReader14decodeInternalE14QSharedPointerINS_12BinaryBitmapEE@Base 3.3.0
 _ZN5zxing17MultiFormatReader15decodeWithStateE14QSharedPointerINS_12BinaryBitmapEE@Base 3.3.0
 _ZN5zxing17MultiFormatReader6decodeE14QSharedPointerINS_12BinaryBitmapEE@Base 3.3.0
 _ZN5zxing17MultiFormatReader6decodeE14QSharedPointerINS_12BinaryBitmapEENS_11DecodeHintsE@Base 3.3.0
 _ZN5zxing17MultiFormatReader8setHintsENS_11DecodeHintsE@Base 3.3.0
 _ZN5zxing17MultiFormatReaderC1Ev@Base 3.3.0
 _ZN5zxing17MultiFormatReaderC2Ev@Base 3.3.0
 _ZN5zxing17MultiFormatReaderD0Ev@Base 3.3.0
 _ZN5zxing17MultiFormatReaderD1Ev@Base 3.3.0
 _ZN5zxing17MultiFormatReaderD2Ev@Base 3.3.0
 _ZN5zxing17NotFoundExceptionC1EPKc@Base 3.3.0
 _ZN5zxing17NotFoundExceptionC1Ev@Base 3.3.0
 _ZN5zxing17NotFoundExceptionC2EPKc@Base 3.3.0
 _ZN5zxing17NotFoundExceptionC2Ev@Base 3.3.0
 _ZN5zxing17NotFoundExceptionD0Ev@Base 3.3.0
 _ZN5zxing17NotFoundExceptionD1Ev@Base 3.3.0
 _ZN5zxing17NotFoundExceptionD2Ev@Base 3.3.0
 _ZN5zxing18ReedSolomonDecoder18findErrorLocationsE14QSharedPointerINS_13GenericGFPolyEE@Base 3.3.0
 _ZN5zxing18ReedSolomonDecoder19findErrorMagnitudesE14QSharedPointerINS_13GenericGFPolyEES1_ISt6vectorIiSaIiEEE@Base 3.3.0
 _ZN5zxing18ReedSolomonDecoder21runEuclideanAlgorithmE14QSharedPointerINS_13GenericGFPolyEES3_i@Base 3.3.0
 _ZN5zxing18ReedSolomonDecoder6decodeE14QSharedPointerISt6vectorIiSaIiEEEi@Base 3.3.0
 _ZN5zxing18ReedSolomonDecoderC1E14QSharedPointerINS_9GenericGFEE@Base 3.3.0
 _ZN5zxing18ReedSolomonDecoderC2E14QSharedPointerINS_9GenericGFEE@Base 3.3.0
 _ZN5zxing18ReedSolomonDecoderD1Ev@Base 3.3.0
 _ZN5zxing18ReedSolomonDecoderD2Ev@Base 3.3.0
 _ZN5zxing18ReedSolomonEncoder14buildGeneratorEi@Base 3.3.0
 _ZN5zxing18ReedSolomonEncoder6encodeERSt6vectorIhSaIhEEi@Base 3.3.0
 _ZN5zxing18ReedSolomonEncoderC1E14QSharedPointerINS_9GenericGFEE@Base 3.3.0
 _ZN5zxing18ReedSolomonEncoderC2E14QSharedPointerINS_9GenericGFEE@Base 3.3.0
 _ZN5zxing18ReedSolomonEncoderD1Ev@Base 3.3.0
 _ZN5zxing18ReedSolomonEncoderD2Ev@Base 3.3.0
 _ZN5zxing19ResultPointCallbackD0Ev@Base 3.3.0
 _ZN5zxing19ResultPointCallbackD1Ev@Base 3.3.0
 _ZN5zxing19ResultPointCallbackD2Ev@Base 3.3.0
 _ZN5zxing20PerspectiveTransform12buildAdjointEv@Base 3.3.0
 _ZN5zxing20PerspectiveTransform15transformPointsERSt6vectorIfSaIfEE@Base 3.3.0
 _ZN5zxing20PerspectiveTransform21quadrilateralToSquareEffffffff@Base 3.3.0
 _ZN5zxing20PerspectiveTransform21squareToQuadrilateralEffffffff@Base 3.3.0
 _ZN5zxing20PerspectiveTransform28quadrilateralToQuadrilateralEffffffffffffffff@Base 3.3.0
 _ZN5zxing20PerspectiveTransform5timesE14QSharedPointerIS0_E@Base 3.3.0
 _ZN5zxing20PerspectiveTransformC1Efffffffff@Base 3.3.0
 _ZN5zxing20PerspectiveTransformC2Efffffffff@Base 3.3.0
 _ZN5zxing20ReedSolomonExceptionC1EPKc@Base 3.3.0
 _ZN5zxing20ReedSolomonExceptionC2EPKc@Base 3.3.0
 _ZN5zxing20ReedSolomonExceptionD0Ev@Base 3.3.0
 _ZN5zxing20ReedSolomonExceptionD1Ev@Base 3.3.0
 _ZN5zxing20ReedSolomonExceptionD2Ev@Base 3.3.0
 _ZN5zxing21IllegalStateExceptionC1EPKc@Base 3.3.0
 _ZN5zxing21IllegalStateExceptionC1Ev@Base 3.3.0
 _ZN5zxing21IllegalStateExceptionC2EPKc@Base 3.3.0
 _ZN5zxing21IllegalStateExceptionC2Ev@Base 3.3.0
 _ZN5zxing21IllegalStateExceptionD0Ev@Base 3.3.0
 _ZN5zxing21IllegalStateExceptionD1Ev@Base 3.3.0
 _ZN5zxing21IllegalStateExceptionD2Ev@Base 3.3.0
 _ZN5zxing22WhiteRectangleDetector11centerEdgesE14QSharedPointerINS_11ResultPointEES3_S3_S3_@Base 3.3.0
 _ZN5zxing22WhiteRectangleDetector18containsBlackPointEiiib@Base 3.3.0
 _ZN5zxing22WhiteRectangleDetector22getBlackPointOnSegmentEiiii@Base 3.3.0
 _ZN5zxing22WhiteRectangleDetector4CORRE@Base 3.3.0
 _ZN5zxing22WhiteRectangleDetector6detectEv@Base 3.3.0
 _ZN5zxing22WhiteRectangleDetector9INIT_SIZEE@Base 3.3.0
 _ZN5zxing22WhiteRectangleDetectorC1E14QSharedPointerINS_9BitMatrixEE@Base 3.3.0
 _ZN5zxing22WhiteRectangleDetectorC1E14QSharedPointerINS_9BitMatrixEEiii@Base 3.3.0
 _ZN5zxing22WhiteRectangleDetectorC2E14QSharedPointerINS_9BitMatrixEE@Base 3.3.0
 _ZN5zxing22WhiteRectangleDetectorC2E14QSharedPointerINS_9BitMatrixEEiii@Base 3.3.0
 _ZN5zxing23InvertedLuminanceSourceC1ERK14QSharedPointerINS_15LuminanceSourceEE@Base 3.3.0
 _ZN5zxing23InvertedLuminanceSourceC2ERK14QSharedPointerINS_15LuminanceSourceEE@Base 3.3.0
 _ZN5zxing23InvertedLuminanceSourceD0Ev@Base 3.3.0
 _ZN5zxing23InvertedLuminanceSourceD1Ev@Base 3.3.0
 _ZN5zxing23InvertedLuminanceSourceD2Ev@Base 3.3.0
 _ZN5zxing24GlobalHistogramBinarizer10initArraysEi@Base 3.3.0
 _ZN5zxing24GlobalHistogramBinarizer11getBlackRowEi14QSharedPointerINS_8BitArrayEE@Base 3.3.0
 _ZN5zxing24GlobalHistogramBinarizer14getBlackMatrixEv@Base 3.3.0
 _ZN5zxing24GlobalHistogramBinarizer15createBinarizerE14QSharedPointerINS_15LuminanceSourceEE@Base 3.3.0
 _ZN5zxing24GlobalHistogramBinarizer18estimateBlackPointERK14QSharedPointerISt6vectorIiSaIiEEE@Base 3.3.0
 _ZN5zxing24GlobalHistogramBinarizerC1E14QSharedPointerINS_15LuminanceSourceEE@Base 3.3.0
 _ZN5zxing24GlobalHistogramBinarizerC2E14QSharedPointerINS_15LuminanceSourceEE@Base 3.3.0
 _ZN5zxing24GlobalHistogramBinarizerD0Ev@Base 3.3.0
 _ZN5zxing24GlobalHistogramBinarizerD1Ev@Base 3.3.0
 _ZN5zxing24GlobalHistogramBinarizerD2Ev@Base 3.3.0
 _ZN5zxing24GreyscaleLuminanceSourceC1E14QSharedPointerISt6vectorIhSaIhEEEiiiiii@Base 3.3.0
 _ZN5zxing24GreyscaleLuminanceSourceC2E14QSharedPointerISt6vectorIhSaIhEEEiiiiii@Base 3.3.0
 _ZN5zxing24GreyscaleLuminanceSourceD0Ev@Base 3.3.0
 _ZN5zxing24GreyscaleLuminanceSourceD1Ev@Base 3.3.0
 _ZN5zxing24GreyscaleLuminanceSourceD2Ev@Base 3.3.0
 _ZN5zxing24IllegalArgumentExceptionC1EPKc@Base 3.3.0
 _ZN5zxing24IllegalArgumentExceptionC1Ev@Base 3.3.0
 _ZN5zxing24IllegalArgumentExceptionC2EPKc@Base 3.3.0
 _ZN5zxing24IllegalArgumentExceptionC2Ev@Base 3.3.0
 _ZN5zxing24IllegalArgumentExceptionD0Ev@Base 3.3.0
 _ZN5zxing24IllegalArgumentExceptionD1Ev@Base 3.3.0
 _ZN5zxing24IllegalArgumentExceptionD2Ev@Base 3.3.0
 _ZN5zxing27MonochromeRectangleDetector15blackWhiteRangeEiiiib@Base 3.3.0
 _ZN5zxing27MonochromeRectangleDetector20findCornerFromCenterEiiiiiiiii@Base 3.3.0
 _ZN5zxing27MonochromeRectangleDetector6detectEv@Base 3.3.0
 _ZN5zxing31GreyscaleRotatedLuminanceSourceC1E14QSharedPointerISt6vectorIhSaIhEEEiiiiii@Base 3.3.0
 _ZN5zxing31GreyscaleRotatedLuminanceSourceC2E14QSharedPointerISt6vectorIhSaIhEEEiiiiii@Base 3.3.0
 _ZN5zxing31GreyscaleRotatedLuminanceSourceD0Ev@Base 3.3.0
 _ZN5zxing31GreyscaleRotatedLuminanceSourceD1Ev@Base 3.3.0
 _ZN5zxing31GreyscaleRotatedLuminanceSourceD2Ev@Base 3.3.0
 _ZN5zxing4oned10EAN8Reader12decodeMiddleE14QSharedPointerINS_8BitArrayEERKNS0_10OneDReader5RangeERNSt7__cxx1112basic_stringIcSt11char_traitsIcESaIcEEE@Base 3.3.0
 _ZN5zxing4oned10EAN8Reader16getBarcodeFormatEv@Base 3.3.0
 _ZN5zxing4oned10EAN8ReaderC1Ev@Base 3.3.0
 _ZN5zxing4oned10EAN8ReaderC2Ev@Base 3.3.0
 _ZN5zxing4oned10EAN8ReaderD0Ev@Base 3.3.0
 _ZN5zxing4oned10EAN8ReaderD1Ev@Base 3.3.0
 _ZN5zxing4oned10EAN8ReaderD2Ev@Base 3.3.0
 _ZN5zxing4oned10OneDReader13recordPatternE14QSharedPointerINS_8BitArrayEEiRSt6vectorIiSaIiEE@Base 3.3.0
 _ZN5zxing4oned10OneDReader20patternMatchVarianceERSt6vectorIiSaIiEEPKii@Base 3.3.0
 _ZN5zxing4oned10OneDReader20patternMatchVarianceERSt6vectorIiSaIiEERKS4_i@Base 3.3.0
 _ZN5zxing4oned10OneDReader22recordPatternInReverseE14QSharedPointerINS_8BitArrayEEiRSt6vectorIiSaIiEE@Base 3.3.0
 _ZN5zxing4oned10OneDReader6decodeE14QSharedPointerINS_12BinaryBitmapEENS_11DecodeHintsE@Base 3.3.0
 _ZN5zxing4oned10OneDReader8doDecodeE14QSharedPointerINS_12BinaryBitmapEENS_11DecodeHintsE@Base 3.3.0
 _ZN5zxing4oned10OneDReaderD0Ev@Base 3.3.0
 _ZN5zxing4oned10OneDReaderD1Ev@Base 3.3.0
 _ZN5zxing4oned10OneDReaderD2Ev@Base 3.3.0
 _ZN5zxing4oned10UPCAReader12decodeMiddleE14QSharedPointerINS_8BitArrayEERKNS0_10OneDReader5RangeERNSt7__cxx1112basic_stringIcSt11char_traitsIcESaIcEEE@Base 3.3.0
 _ZN5zxing4oned10UPCAReader16getBarcodeFormatEv@Base 3.3.0
 _ZN5zxing4oned10UPCAReader17maybeReturnResultE14QSharedPointerINS_6ResultEE@Base 3.3.0
 _ZN5zxing4oned10UPCAReader6decodeE14QSharedPointerINS_12BinaryBitmapEENS_11DecodeHintsE@Base 3.3.0
 _ZN5zxing4oned10UPCAReader9decodeRowEi14QSharedPointerINS_8BitArrayEENS_11DecodeHintsE@Base 3.3.0
 _ZN5zxing4oned10UPCAReader9decodeRowEi14QSharedPointerINS_8BitArrayEERKNS0_10OneDReader5RangeE@Base 3.3.0
 _ZN5zxing4oned10UPCAReaderC1Ev@Base 3.3.0
 _ZN5zxing4oned10UPCAReaderC2Ev@Base 3.3.0
 _ZN5zxing4oned10UPCAReaderD0Ev@Base 3.3.0
 _ZN5zxing4oned10UPCAReaderD1Ev@Base 3.3.0
 _ZN5zxing4oned10UPCAReaderD2Ev@Base 3.3.0
 _ZN5zxing4oned10UPCEReader12decodeMiddleE14QSharedPointerINS_8BitArrayEERKNS0_10OneDReader5RangeERNSt7__cxx1112basic_stringIcSt11char_traitsIcESaIcEEE@Base 3.3.0
 _ZN5zxing4oned10UPCEReader13checkChecksumERK14QSharedPointerINS_6StringEE@Base 3.3.0
 _ZN5zxing4oned10UPCEReader16getBarcodeFormatEv@Base 3.3.0
 _ZN5zxing4oned10UPCEReader17convertUPCEtoUPCAERK14QSharedPointerINS_6StringEE@Base 3.3.0
 _ZN5zxing4oned10UPCEReader28determineNumSysAndCheckDigitERNSt7__cxx1112basic_stringIcSt11char_traitsIcESaIcEEEi@Base 3.3.0
 _ZN5zxing4oned10UPCEReader9decodeEndE14QSharedPointerINS_8BitArrayEEi@Base 3.3.0
 _ZN5zxing4oned10UPCEReaderC1Ev@Base 3.3.0
 _ZN5zxing4oned10UPCEReaderC2Ev@Base 3.3.0
 _ZN5zxing4oned10UPCEReaderD0Ev@Base 3.3.0
 _ZN5zxing4oned10UPCEReaderD1Ev@Base 3.3.0
 _ZN5zxing4oned10UPCEReaderD2Ev@Base 3.3.0
 _ZN5zxing4oned11EAN13Reader12decodeMiddleE14QSharedPointerINS_8BitArrayEERKNS0_10OneDReader5RangeERNSt7__cxx1112basic_stringIcSt11char_traitsIcESaIcEEE@Base 3.3.0
 _ZN5zxing4oned11EAN13Reader16getBarcodeFormatEv@Base 3.3.0
 _ZN5zxing4oned11EAN13Reader19determineFirstDigitERNSt7__cxx1112basic_stringIcSt11char_traitsIcESaIcEEEi@Base 3.3.0
 _ZN5zxing4oned11EAN13ReaderC1Ev@Base 3.3.0
 _ZN5zxing4oned11EAN13ReaderC2Ev@Base 3.3.0
 _ZN5zxing4oned11EAN13ReaderD0Ev@Base 3.3.0
 _ZN5zxing4oned11EAN13ReaderD1Ev@Base 3.3.0
 _ZN5zxing4oned11EAN13ReaderD2Ev@Base 3.3.0
 _ZN5zxing4oned12Code39Reader13patternToCharEi@Base 3.3.0
 _ZN5zxing4oned12Code39Reader14decodeExtendedENSt7__cxx1112basic_stringIcSt11char_traitsIcESaIcEEE@Base 3.3.0
 _ZN5zxing4oned12Code39Reader19findAsteriskPatternE14QSharedPointerINS_8BitArrayEERSt6vectorIiSaIiEE@Base 3.3.0
 _ZN5zxing4oned12Code39Reader19toNarrowWidePatternERSt6vectorIiSaIiEE@Base 3.3.0
 _ZN5zxing4oned12Code39Reader4initEbb@Base 3.3.0
 _ZN5zxing4oned12Code39Reader9decodeRowEi14QSharedPointerINS_8BitArrayEENS_11DecodeHintsE@Base 3.3.0
 _ZN5zxing4oned12Code39ReaderC1Eb@Base 3.3.0
 _ZN5zxing4oned12Code39ReaderC1Ebb@Base 3.3.0
 _ZN5zxing4oned12Code39ReaderC1Ev@Base 3.3.0
 _ZN5zxing4oned12Code39ReaderC2Eb@Base 3.3.0
 _ZN5zxing4oned12Code39ReaderC2Ebb@Base 3.3.0
 _ZN5zxing4oned12Code39ReaderC2Ev@Base 3.3.0
 _ZN5zxing4oned12Code39ReaderD0Ev@Base 3.3.0
 _ZN5zxing4oned12Code39ReaderD1Ev@Base 3.3.0
 _ZN5zxing4oned12Code39ReaderD2Ev@Base 3.3.0
 _ZN5zxing4oned12Code93Reader13patternToCharEi@Base 3.3.0
 _ZN5zxing4oned12Code93Reader14checkChecksumsERKNSt7__cxx1112basic_stringIcSt11char_traitsIcESaIcEEE@Base 3.3.0
 _ZN5zxing4oned12Code93Reader14decodeExtendedERKNSt7__cxx1112basic_stringIcSt11char_traitsIcESaIcEEE@Base 3.3.0
 _ZN5zxing4oned12Code93Reader16checkOneChecksumERKNSt7__cxx1112basic_stringIcSt11char_traitsIcESaIcEEEii@Base 3.3.0
 _ZN5zxing4oned12Code93Reader19findAsteriskPatternE14QSharedPointerINS_8BitArrayEE@Base 3.3.0
 _ZN5zxing4oned12Code93Reader9decodeRowEi14QSharedPointerINS_8BitArrayEENS_11DecodeHintsE@Base 3.3.0
 _ZN5zxing4oned12Code93Reader9toPatternERSt6vectorIiSaIiEE@Base 3.3.0
 _ZN5zxing4oned12Code93ReaderC1Ev@Base 3.3.0
 _ZN5zxing4oned12Code93ReaderC2Ev@Base 3.3.0
 _ZN5zxing4oned12Code93ReaderD0Ev@Base 3.3.0
 _ZN5zxing4oned12Code93ReaderD1Ev@Base 3.3.0
 _ZN5zxing4oned12Code93ReaderD2Ev@Base 3.3.0
 _ZN5zxing4oned12UPCEANReader10L_PATTERNSE@Base 3.3.0
 _ZN5zxing4oned12UPCEANReader11decodeDigitE14QSharedPointerINS_8BitArrayEERSt6vectorIiSaIiEEiRKS5_IPKiSaISA_EE@Base 3.3.0
 _ZN5zxing4oned12UPCEANReader13checkChecksumERK14QSharedPointerINS_6StringEE@Base 3.3.0
 _ZN5zxing4oned12UPCEANReader14MIDDLE_PATTERNE@Base 3.3.0
 _ZN5zxing4oned12UPCEANReader16L_AND_G_PATTERNSE@Base 3.3.0
 _ZN5zxing4oned12UPCEANReader16MAX_AVG_VARIANCEE@Base 3.3.0
 _ZN5zxing4oned12UPCEANReader16findGuardPatternE14QSharedPointerINS_8BitArrayEEibRKSt6vectorIiSaIiEE@Base 3.3.0
 _ZN5zxing4oned12UPCEANReader16findGuardPatternE14QSharedPointerINS_8BitArrayEEibRKSt6vectorIiSaIiEERS7_@Base 3.3.0
 _ZN5zxing4oned12UPCEANReader17START_END_PATTERNE@Base 3.3.0
 _ZN5zxing4oned12UPCEANReader21findStartGuardPatternE14QSharedPointerINS_8BitArrayEE@Base 3.3.0
 _ZN5zxing4oned12UPCEANReader23MAX_INDIVIDUAL_VARIANCEE@Base 3.3.0
 _ZN5zxing4oned12UPCEANReader27checkStandardUPCEANChecksumERK14QSharedPointerINS_6StringEE@Base 3.3.0
 _ZN5zxing4oned12UPCEANReader9decodeEndE14QSharedPointerINS_8BitArrayEEi@Base 3.3.0
 _ZN5zxing4oned12UPCEANReader9decodeRowEi14QSharedPointerINS_8BitArrayEENS_11DecodeHintsE@Base 3.3.0
 _ZN5zxing4oned12UPCEANReader9decodeRowEi14QSharedPointerINS_8BitArrayEERKNS0_10OneDReader5RangeENS_11DecodeHintsE@Base 3.3.0
 _ZN5zxing4oned12UPCEANReaderC1Ev@Base 3.3.0
 _ZN5zxing4oned12UPCEANReaderC2Ev@Base 3.3.0
 _ZN5zxing4oned12UPCEANReaderD0Ev@Base 3.3.0
 _ZN5zxing4oned12UPCEANReaderD1Ev@Base 3.3.0
 _ZN5zxing4oned12UPCEANReaderD2Ev@Base 3.3.0
 _ZN5zxing4oned13CodaBarReader11setCountersE14QSharedPointerINS_8BitArrayEE@Base 3.3.0
 _ZN5zxing4oned13CodaBarReader13arrayContainsEPKcc@Base 3.3.0
 _ZN5zxing4oned13CodaBarReader13counterAppendEi@Base 3.3.0
 _ZN5zxing4oned13CodaBarReader14MAX_ACCEPTABLEE@Base 3.3.0
 _ZN5zxing4oned13CodaBarReader15validatePatternEi@Base 3.3.0
 _ZN5zxing4oned13CodaBarReader16findStartPatternEv@Base 3.3.0
 _ZN5zxing4oned13CodaBarReader19toNarrowWidePatternEi@Base 3.3.0
 _ZN5zxing4oned13CodaBarReader7PADDINGE@Base 3.3.0
 _ZN5zxing4oned13CodaBarReader9decodeRowEi14QSharedPointerINS_8BitArrayEENS_11DecodeHintsE@Base 3.3.0
 _ZN5zxing4oned13CodaBarReaderC1Ev@Base 3.3.0
 _ZN5zxing4oned13CodaBarReaderC2Ev@Base 3.3.0
 _ZN5zxing4oned13CodaBarReaderD0Ev@Base 3.3.0
 _ZN5zxing4oned13CodaBarReaderD1Ev@Base 3.3.0
 _ZN5zxing4oned13CodaBarReaderD2Ev@Base 3.3.0
 _ZN5zxing4oned13Code128Reader10decodeCodeE14QSharedPointerINS_8BitArrayEERSt6vectorIiSaIiEEi@Base 3.3.0
 _ZN5zxing4oned13Code128Reader16MAX_AVG_VARIANCEE@Base 3.3.0
 _ZN5zxing4oned13Code128Reader16findStartPatternE14QSharedPointerINS_8BitArrayEE@Base 3.3.0
 _ZN5zxing4oned13Code128Reader16getBarcodeFormatEv@Base 3.3.0
 _ZN5zxing4oned13Code128Reader23MAX_INDIVIDUAL_VARIANCEE@Base 3.3.0
 _ZN5zxing4oned13Code128Reader9decodeRowEi14QSharedPointerINS_8BitArrayEENS_11DecodeHintsE@Base 3.3.0
 _ZN5zxing4oned13Code128ReaderC1Ev@Base 3.3.0
 _ZN5zxing4oned13Code128ReaderC2Ev@Base 3.3.0
 _ZN5zxing4oned13Code128ReaderD0Ev@Base 3.3.0
 _ZN5zxing4oned13Code128ReaderD1Ev@Base 3.3.0
 _ZN5zxing4oned13Code128ReaderD2Ev@Base 3.3.0
 _ZN5zxing4oned15OneDResultPointC1Eff@Base 3.3.0
 _ZN5zxing4oned15OneDResultPointC2Eff@Base 3.3.0
 _ZN5zxing4oned15OneDResultPointD0Ev@Base 3.3.0
 _ZN5zxing4oned15OneDResultPointD1Ev@Base 3.3.0
 _ZN5zxing4oned15OneDResultPointD2Ev@Base 3.3.0
 _ZN5zxing4oned21MultiFormatOneDReader9decodeRowEi14QSharedPointerINS_8BitArrayEENS_11DecodeHintsE@Base 3.3.0
 _ZN5zxing4oned21MultiFormatOneDReaderC1ENS_11DecodeHintsE@Base 3.3.0
 _ZN5zxing4oned21MultiFormatOneDReaderC2ENS_11DecodeHintsE@Base 3.3.0
 _ZN5zxing4oned21MultiFormatOneDReaderD0Ev@Base 3.3.0
 _ZN5zxing4oned21MultiFormatOneDReaderD1Ev@Base 3.3.0
 _ZN5zxing4oned21MultiFormatOneDReaderD2Ev@Base 3.3.0
 _ZN5zxing4oned22UPCEANExtensionSupport9decodeRowEi14QSharedPointerINS_8BitArrayEEi@Base 3.3.0
 _ZN5zxing4oned23MultiFormatUPCEANReader9decodeRowEi14QSharedPointerINS_8BitArrayEENS_11DecodeHintsE@Base 3.3.0
 _ZN5zxing4oned23MultiFormatUPCEANReaderC1ENS_11DecodeHintsE@Base 3.3.0
 _ZN5zxing4oned23MultiFormatUPCEANReaderC2ENS_11DecodeHintsE@Base 3.3.0
 _ZN5zxing4oned23MultiFormatUPCEANReaderD0Ev@Base 3.3.0
 _ZN5zxing4oned23MultiFormatUPCEANReaderD1Ev@Base 3.3.0
 _ZN5zxing4oned23MultiFormatUPCEANReaderD2Ev@Base 3.3.0
 _ZN5zxing4oned23UPCEANExtension2Support9decodeRowEi14QSharedPointerINS_8BitArrayEEii@Base 3.3.0
 _ZN5zxing4oned23UPCEANExtension5Support9decodeRowEi14QSharedPointerINS_8BitArrayEEii@Base 3.3.0
 _ZN5zxing4oned25EANManufacturerOrgSupport23lookupCountryIdentifierER14QSharedPointerINS_6StringEE@Base 3.3.0
 _ZN5zxing4oned3rss11AI01decoder16appendCheckDigitERNS_6StringEi@Base 3.3.0
 _ZN5zxing4oned3rss11AI01decoder20encodeCompressedGtinERNS_6StringEi@Base 3.3.0
 _ZN5zxing4oned3rss11AI01decoder29encodeCompressedGtinWithoutAIERNS_6StringEii@Base 3.3.0
 _ZN5zxing4oned3rss11AI01decoderC1E14QSharedPointerINS_8BitArrayEE@Base 3.3.0
 _ZN5zxing4oned3rss11AI01decoderC2E14QSharedPointerINS_8BitArrayEE@Base 3.3.0
 _ZN5zxing4oned3rss11DecodedCharC1Eic@Base 3.3.0
 _ZN5zxing4oned3rss11DecodedCharC2Eic@Base 3.3.0
 _ZN5zxing4oned3rss11ExpandedRow12getRowNumberEv@Base 3.3.0
 _ZN5zxing4oned3rss11ExpandedRow8getPairsEv@Base 3.3.0
 _ZN5zxing4oned3rss11ExpandedRow8toStringEv@Base 3.3.0
 _ZN5zxing4oned3rss11ExpandedRowC1EPKS2_@Base 3.3.0
 _ZN5zxing4oned3rss11ExpandedRowC1ESt6vectorINS1_12ExpandedPairESaIS4_EEib@Base 3.3.0
 _ZN5zxing4oned3rss11ExpandedRowC2EPKS2_@Base 3.3.0
 _ZN5zxing4oned3rss11ExpandedRowC2ESt6vectorINS1_12ExpandedPairESaIS4_EEib@Base 3.3.0
 _ZN5zxing4oned3rss11FieldParser14processFixedAIEiiNS_6StringE@Base 3.3.0
 _ZN5zxing4oned3rss11FieldParser17processVariableAIEiiNS_6StringE@Base 3.3.0
 _ZN5zxing4oned3rss11FieldParser27parseFieldsInGeneralPurposeENS_6StringE@Base 3.3.0
 _ZN5zxing4oned3rss11RSS14Reader10addOrTallyERSt6vectorINS1_4PairESaIS4_EERS4_@Base 3.3.0
 _ZN5zxing4oned3rss11RSS14Reader10decodePairE14QSharedPointerINS_8BitArrayEEbiNS_11DecodeHintsE@Base 3.3.0
 _ZN5zxing4oned3rss11RSS14Reader13checkChecksumENS1_4PairES3_@Base 3.3.0
 _ZN5zxing4oned3rss11RSS14Reader15FINDER_PATTERNSE@Base 3.3.0
 _ZN5zxing4oned3rss11RSS14Reader17findFinderPatternE14QSharedPointerINS_8BitArrayEEb@Base 3.3.0
 _ZN5zxing4oned3rss11RSS14Reader19adjustOddEvenCountsEbi@Base 3.3.0
 _ZN5zxing4oned3rss11RSS14Reader19decodeDataCharacterE14QSharedPointerINS_8BitArrayEENS1_13FinderPatternEb@Base 3.3.0
 _ZN5zxing4oned3rss11RSS14Reader23parseFoundFinderPatternE14QSharedPointerINS_8BitArrayEEibSt6vectorIiSaIiEE@Base 3.3.0
 _ZN5zxing4oned3rss11RSS14Reader5resetEv@Base 3.3.0
 _ZN5zxing4oned3rss11RSS14Reader9decodeRowEi14QSharedPointerINS_8BitArrayEENS_11DecodeHintsE@Base 3.3.0
 _ZN5zxing4oned3rss11RSS14ReaderC1Ev@Base 3.3.0
 _ZN5zxing4oned3rss11RSS14ReaderC2Ev@Base 3.3.0
 _ZN5zxing4oned3rss11RSS14ReaderD0Ev@Base 3.3.0
 _ZN5zxing4oned3rss11RSS14ReaderD1Ev@Base 3.3.0
 _ZN5zxing4oned3rss11RSS14ReaderD2Ev@Base 3.3.0
 _ZN5zxing4oned3rss12AnyAIDecoder16parseInformationEv@Base 3.3.0
 _ZN5zxing4oned3rss12AnyAIDecoderC1E14QSharedPointerINS_8BitArrayEE@Base 3.3.0
 _ZN5zxing4oned3rss12AnyAIDecoderC2E14QSharedPointerINS_8BitArrayEE@Base 3.3.0
 _ZN5zxing4oned3rss12AnyAIDecoderD0Ev@Base 3.3.0
 _ZN5zxing4oned3rss12AnyAIDecoderD1Ev@Base 3.3.0
 _ZN5zxing4oned3rss12AnyAIDecoderD2Ev@Base 3.3.0
 _ZN5zxing4oned3rss12ExpandedPair11getLeftCharEv@Base 3.3.0
 _ZN5zxing4oned3rss12ExpandedPair12getRightCharEv@Base 3.3.0
 _ZN5zxing4oned3rss12ExpandedPair16getFinderPatternEv@Base 3.3.0
 _ZN5zxing4oned3rss12ExpandedPairC1ENS1_13DataCharacterES3_14QSharedPointerINS1_13FinderPatternEE@Base 3.3.0
 _ZN5zxing4oned3rss12ExpandedPairC1EPKS2_@Base 3.3.0
 _ZN5zxing4oned3rss12ExpandedPairC2ENS1_13DataCharacterES3_14QSharedPointerINS1_13FinderPatternEE@Base 3.3.0
 _ZN5zxing4oned3rss12ExpandedPairC2EPKS2_@Base 3.3.0
 _ZN5zxing4oned3rss13DataCharacterC1Eii@Base 3.3.0
 _ZN5zxing4oned3rss13DataCharacterC1Ev@Base 3.3.0
 _ZN5zxing4oned3rss13DataCharacterC2Eii@Base 3.3.0
 _ZN5zxing4oned3rss13DataCharacterC2Ev@Base 3.3.0
 _ZN5zxing4oned3rss13DecodedObjectC1Ei@Base 3.3.0
 _ZN5zxing4oned3rss13DecodedObjectC2Ei@Base 3.3.0
 _ZN5zxing4oned3rss13FinderPattern11getStartEndEv@Base 3.3.0
 _ZN5zxing4oned3rss13FinderPattern15getResultPointsEv@Base 3.3.0
 _ZN5zxing4oned3rss13FinderPatternC1EPKS2_@Base 3.3.0
 _ZN5zxing4oned3rss13FinderPatternC1EiSt6vectorIiSaIiEEiii@Base 3.3.0
 _ZN5zxing4oned3rss13FinderPatternC2EPKS2_@Base 3.3.0
 _ZN5zxing4oned3rss13FinderPatternC2EiSt6vectorIiSaIiEEiii@Base 3.3.0
 _ZN5zxing4oned3rss13FinderPatternD1Ev@Base 3.3.0
 _ZN5zxing4oned3rss13FinderPatternD2Ev@Base 3.3.0
 _ZN5zxing4oned3rss14DecodedNumericC1E14QSharedPointerIS2_E@Base 3.3.0
 _ZN5zxing4oned3rss14DecodedNumericC1Eiii@Base 3.3.0
 _ZN5zxing4oned3rss14DecodedNumericC2E14QSharedPointerIS2_E@Base 3.3.0
 _ZN5zxing4oned3rss14DecodedNumericC2Eiii@Base 3.3.0
 _ZN5zxing4oned3rss15AI013103decoder11checkWeightEi@Base 3.3.0
 _ZN5zxing4oned3rss15AI013103decoder13addWeightCodeERNS_6StringEi@Base 3.3.0
 _ZN5zxing4oned3rss15AI013103decoderC1E14QSharedPointerINS_8BitArrayEE@Base 3.3.0
 _ZN5zxing4oned3rss15AI013103decoderC2E14QSharedPointerINS_8BitArrayEE@Base 3.3.0
 _ZN5zxing4oned3rss15AI013103decoderD0Ev@Base 3.3.0
 _ZN5zxing4oned3rss15AI013103decoderD1Ev@Base 3.3.0
 _ZN5zxing4oned3rss15AI013103decoderD2Ev@Base 3.3.0
 _ZN5zxing4oned3rss15AI01320xDecoder11checkWeightEi@Base 3.3.0
 _ZN5zxing4oned3rss15AI01320xDecoder13addWeightCodeERNS_6StringEi@Base 3.3.0
 _ZN5zxing4oned3rss15AI01320xDecoderC1E14QSharedPointerINS_8BitArrayEE@Base 3.3.0
 _ZN5zxing4oned3rss15AI01320xDecoderC2E14QSharedPointerINS_8BitArrayEE@Base 3.3.0
 _ZN5zxing4oned3rss15AI01320xDecoderD0Ev@Base 3.3.0
 _ZN5zxing4oned3rss15AI01320xDecoderD1Ev@Base 3.3.0
 _ZN5zxing4oned3rss15AI01320xDecoderD2Ev@Base 3.3.0
 _ZN5zxing4oned3rss15AI01392xDecoder16parseInformationEv@Base 3.3.0
 _ZN5zxing4oned3rss15AI01392xDecoderC1E14QSharedPointerINS_8BitArrayEE@Base 3.3.0
 _ZN5zxing4oned3rss15AI01392xDecoderC2E14QSharedPointerINS_8BitArrayEE@Base 3.3.0
 _ZN5zxing4oned3rss15AI01392xDecoderD0Ev@Base 3.3.0
 _ZN5zxing4oned3rss15AI01392xDecoderD1Ev@Base 3.3.0
 _ZN5zxing4oned3rss15AI01392xDecoderD2Ev@Base 3.3.0
 _ZN5zxing4oned3rss15AI01393xDecoder16parseInformationEv@Base 3.3.0
 _ZN5zxing4oned3rss15AI01393xDecoderC1E14QSharedPointerINS_8BitArrayEE@Base 3.3.0
 _ZN5zxing4oned3rss15AI01393xDecoderC2E14QSharedPointerINS_8BitArrayEE@Base 3.3.0
 _ZN5zxing4oned3rss15AI01393xDecoderD0Ev@Base 3.3.0
 _ZN5zxing4oned3rss15AI01393xDecoderD1Ev@Base 3.3.0
 _ZN5zxing4oned3rss15AI01393xDecoderD2Ev@Base 3.3.0
 _ZN5zxing4oned3rss15AI013x0xDecoder16parseInformationEv@Base 3.3.0
 _ZN5zxing4oned3rss15AI013x0xDecoderC1E14QSharedPointerINS_8BitArrayEE@Base 3.3.0
 _ZN5zxing4oned3rss15AI013x0xDecoderC2E14QSharedPointerINS_8BitArrayEE@Base 3.3.0
 _ZN5zxing4oned3rss15AI01AndOtherAIs16parseInformationEv@Base 3.3.0
 _ZN5zxing4oned3rss15AI01AndOtherAIsC1E14QSharedPointerINS_8BitArrayEE@Base 3.3.0
 _ZN5zxing4oned3rss15AI01AndOtherAIsC2E14QSharedPointerINS_8BitArrayEE@Base 3.3.0
 _ZN5zxing4oned3rss15AI01AndOtherAIsD0Ev@Base 3.3.0
 _ZN5zxing4oned3rss15AI01AndOtherAIsD1Ev@Base 3.3.0
 _ZN5zxing4oned3rss15AI01AndOtherAIsD2Ev@Base 3.3.0
 _ZN5zxing4oned3rss15BitArrayBuilder13buildBitArrayESt6vectorINS1_12ExpandedPairESaIS4_EE@Base 3.3.0
 _ZN5zxing4oned3rss17AI013x0x1xDecoder11checkWeightEi@Base 3.3.0
 _ZN5zxing4oned3rss17AI013x0x1xDecoder13addWeightCodeERNS_6StringEi@Base 3.3.0
 _ZN5zxing4oned3rss17AI013x0x1xDecoder16parseInformationEv@Base 3.3.0
 _ZN5zxing4oned3rss17AI013x0x1xDecoder20encodeCompressedDateERNS_6StringEi@Base 3.3.0
 _ZN5zxing4oned3rss17AI013x0x1xDecoderC1E14QSharedPointerINS_8BitArrayEENS_6StringES6_@Base 3.3.0
 _ZN5zxing4oned3rss17AI013x0x1xDecoderC2E14QSharedPointerINS_8BitArrayEENS_6StringES6_@Base 3.3.0
 _ZN5zxing4oned3rss17AI013x0x1xDecoderD0Ev@Base 3.3.0
 _ZN5zxing4oned3rss17AI013x0x1xDecoderD1Ev@Base 3.3.0
 _ZN5zxing4oned3rss17AI013x0x1xDecoderD2Ev@Base 3.3.0
 _ZN5zxing4oned3rss17AI01weightDecoder22encodeCompressedWeightERNS_6StringEii@Base 3.3.0
 _ZN5zxing4oned3rss17AI01weightDecoderC1E14QSharedPointerINS_8BitArrayEE@Base 3.3.0
 _ZN5zxing4oned3rss17AI01weightDecoderC2E14QSharedPointerINS_8BitArrayEE@Base 3.3.0
 _ZN5zxing4oned3rss17AbstractRSSReader12getOddCountsEv@Base 3.3.0
 _ZN5zxing4oned3rss17AbstractRSSReader13getEvenCountsEv@Base 3.3.0
 _ZN5zxing4oned3rss17AbstractRSSReader15isFinderPatternERSt6vectorIiSaIiEE@Base 3.3.0
 _ZN5zxing4oned3rss17AbstractRSSReader16parseFinderValueERSt6vectorIiSaIiEERKS3_IPKiSaIS8_EE@Base 3.3.0
 _ZN5zxing4oned3rss17AbstractRSSReader20getOddRoundingErrorsEv@Base 3.3.0
 _ZN5zxing4oned3rss17AbstractRSSReader21getEvenRoundingErrorsEv@Base 3.3.0
 _ZN5zxing4oned3rss17AbstractRSSReader23getDecodeFinderCountersEv@Base 3.3.0
 _ZN5zxing4oned3rss17AbstractRSSReader24getDataCharacterCountersEv@Base 3.3.0
 _ZN5zxing4oned3rss17AbstractRSSReader5countERSt6vectorIiSaIiEE@Base 3.3.0
 _ZN5zxing4oned3rss17AbstractRSSReader9decrementERSt6vectorIiSaIiEERS3_IfSaIfEE@Base 3.3.0
 _ZN5zxing4oned3rss17AbstractRSSReader9incrementERSt6vectorIiSaIiEERS3_IfSaIfEE@Base 3.3.0
 _ZN5zxing4oned3rss17AbstractRSSReaderC1Ev@Base 3.3.0
 _ZN5zxing4oned3rss17AbstractRSSReaderC2Ev@Base 3.3.0
 _ZN5zxing4oned3rss17AbstractRSSReaderD0Ev@Base 3.3.0
 _ZN5zxing4oned3rss17AbstractRSSReaderD1Ev@Base 3.3.0
 _ZN5zxing4oned3rss17AbstractRSSReaderD2Ev@Base 3.3.0
 _ZN5zxing4oned3rss17BlockParsedResult10isFinishedEv@Base 3.3.0
 _ZN5zxing4oned3rss17BlockParsedResult21getDecodedInformationEv@Base 3.3.0
 _ZN5zxing4oned3rss17BlockParsedResultC1ERKNS1_18DecodedInformationEb@Base 3.3.0
 _ZN5zxing4oned3rss17BlockParsedResultC1Eb@Base 3.3.0
 _ZN5zxing4oned3rss17BlockParsedResultC2ERKNS1_18DecodedInformationEb@Base 3.3.0
 _ZN5zxing4oned3rss17BlockParsedResultC2Eb@Base 3.3.0
 _ZN5zxing4oned3rss17RSSExpandedReader11isNotA1leftE14QSharedPointerINS1_13FinderPatternEEbb@Base 3.3.0
 _ZN5zxing4oned3rss17RSSExpandedReader12findNextPairE14QSharedPointerINS_8BitArrayEESt6vectorINS1_12ExpandedPairESaIS7_EEi@Base 3.3.0
 _ZN5zxing4oned3rss17RSSExpandedReader12isPartialRowERSt6vectorINS1_12ExpandedPairESaIS4_EERS3_INS1_11ExpandedRowESaIS8_EE@Base 3.3.0
 _ZN5zxing4oned3rss17RSSExpandedReader13checkChecksumEv@Base 3.3.0
 _ZN5zxing4oned3rss17RSSExpandedReader15FINDER_PATTERNSE@Base 3.3.0
 _ZN5zxing4oned3rss17RSSExpandedReader15constructResultESt6vectorINS1_12ExpandedPairESaIS4_EE@Base 3.3.0
 _ZN5zxing4oned3rss17RSSExpandedReader15decodeRow2pairsEi14QSharedPointerINS_8BitArrayEE@Base 3.3.0
 _ZN5zxing4oned3rss17RSSExpandedReader15isValidSequenceESt6vectorINS1_12ExpandedPairESaIS4_EE@Base 3.3.0
 _ZN5zxing4oned3rss17RSSExpandedReader16getNextSecondBarE14QSharedPointerINS_8BitArrayEEi@Base 3.3.0
 _ZN5zxing4oned3rss17RSSExpandedReader16retrieveNextPairE14QSharedPointerINS_8BitArrayEERSt6vectorINS1_12ExpandedPairESaIS7_EEi@Base 3.3.0
 _ZN5zxing4oned3rss17RSSExpandedReader17removePartialRowsEv@Base 3.3.0
 _ZN5zxing4oned3rss17RSSExpandedReader19adjustOddEvenCountsEi@Base 3.3.0
 _ZN5zxing4oned3rss17RSSExpandedReader19decodeDataCharacterE14QSharedPointerINS_8BitArrayEES3_INS1_13FinderPatternEEbb@Base 3.3.0
 _ZN5zxing4oned3rss17RSSExpandedReader23parseFoundFinderPatternE14QSharedPointerINS_8BitArrayEEib@Base 3.3.0
 _ZN5zxing4oned3rss17RSSExpandedReader5resetEv@Base 3.3.0
 _ZN5zxing4oned3rss17RSSExpandedReader8storeRowEib@Base 3.3.0
 _ZN5zxing4oned3rss17RSSExpandedReader9checkRowsESt6vectorINS1_11ExpandedRowESaIS4_EEi@Base 3.3.0
 _ZN5zxing4oned3rss17RSSExpandedReader9checkRowsEb@Base 3.3.0
 _ZN5zxing4oned3rss17RSSExpandedReader9decodeRowEi14QSharedPointerINS_8BitArrayEENS_11DecodeHintsE@Base 3.3.0
 _ZN5zxing4oned3rss17RSSExpandedReaderC1Ev@Base 3.3.0
 _ZN5zxing4oned3rss17RSSExpandedReaderC2Ev@Base 3.3.0
 _ZN5zxing4oned3rss17RSSExpandedReaderD0Ev@Base 3.3.0
 _ZN5zxing4oned3rss17RSSExpandedReaderD1Ev@Base 3.3.0
 _ZN5zxing4oned3rss17RSSExpandedReaderD2Ev@Base 3.3.0
 _ZN5zxing4oned3rss18DecodedInformationC1EPKS2_@Base 3.3.0
 _ZN5zxing4oned3rss18DecodedInformationC1EiNS_6StringE@Base 3.3.0
 _ZN5zxing4oned3rss18DecodedInformationC1EiNS_6StringEi@Base 3.3.0
 _ZN5zxing4oned3rss18DecodedInformationC2EPKS2_@Base 3.3.0
 _ZN5zxing4oned3rss18DecodedInformationC2EiNS_6StringE@Base 3.3.0
 _ZN5zxing4oned3rss18DecodedInformationC2EiNS_6StringEi@Base 3.3.0
 _ZN5zxing4oned3rss19CurrentParsingState10setNumericEv@Base 3.3.0
 _ZN5zxing4oned3rss19CurrentParsingState11setPositionEi@Base 3.3.0
 _ZN5zxing4oned3rss19CurrentParsingState12setIsoIec646Ev@Base 3.3.0
 _ZN5zxing4oned3rss19CurrentParsingState17incrementPositionEi@Base 3.3.0
 _ZN5zxing4oned3rss19CurrentParsingState8setAlphaEv@Base 3.3.0
 _ZN5zxing4oned3rss19CurrentParsingStateC1Ev@Base 3.3.0
 _ZN5zxing4oned3rss19CurrentParsingStateC2Ev@Base 3.3.0
 _ZN5zxing4oned3rss19GeneralAppIdDecoder11parseBlocksEv@Base 3.3.0
 _ZN5zxing4oned3rss19GeneralAppIdDecoder12isStillAlphaEi@Base 3.3.0
 _ZN5zxing4oned3rss19GeneralAppIdDecoder13decodeNumericEi@Base 3.3.0
 _ZN5zxing4oned3rss19GeneralAppIdDecoder14decodeAllCodesERNS_6StringEi@Base 3.3.0
 _ZN5zxing4oned3rss19GeneralAppIdDecoder15decodeIsoIec646Ei@Base 3.3.0
 _ZN5zxing4oned3rss19GeneralAppIdDecoder15parseAlphaBlockEv@Base 3.3.0
 _ZN5zxing4oned3rss19GeneralAppIdDecoder16isStillIsoIec646Ei@Base 3.3.0
 _ZN5zxing4oned3rss19GeneralAppIdDecoder17parseNumericBlockEv@Base 3.3.0
 _ZN5zxing4oned3rss19GeneralAppIdDecoder18decodeAlphanumericEi@Base 3.3.0
 _ZN5zxing4oned3rss19GeneralAppIdDecoder19parseIsoIec646BlockEv@Base 3.3.0
 _ZN5zxing4oned3rss19GeneralAppIdDecoder24isAlphaTo646ToAlphaLatchEi@Base 3.3.0
 _ZN5zxing4oned3rss19GeneralAppIdDecoder25decodeGeneralPurposeFieldEiRNS_6StringE@Base 3.3.0
 _ZN5zxing4oned3rss19GeneralAppIdDecoder26isAlphaOr646ToNumericLatchEi@Base 3.3.0
 _ZN5zxing4oned3rss19GeneralAppIdDecoder28isNumericToAlphaNumericLatchEi@Base 3.3.0
 _ZN5zxing4oned3rss19GeneralAppIdDecoder31extractNumericValueFromBitArrayE14QSharedPointerINS_8BitArrayEEii@Base 3.3.0
 _ZN5zxing4oned3rss19GeneralAppIdDecoder31extractNumericValueFromBitArrayEii@Base 3.3.0
 _ZN5zxing4oned3rss19GeneralAppIdDecoderC1E14QSharedPointerINS_8BitArrayEE@Base 3.3.0
 _ZN5zxing4oned3rss19GeneralAppIdDecoderC2E14QSharedPointerINS_8BitArrayEE@Base 3.3.0
 _ZN5zxing4oned3rss19GeneralAppIdDecoderD1Ev@Base 3.3.0
 _ZN5zxing4oned3rss19GeneralAppIdDecoderD2Ev@Base 3.3.0
 _ZN5zxing4oned3rss23AbstractExpandedDecoder13createDecoderE14QSharedPointerINS_8BitArrayEE@Base 3.3.0
 _ZN5zxing4oned3rss23AbstractExpandedDecoder17getGeneralDecoderEv@Base 3.3.0
 _ZN5zxing4oned3rss23AbstractExpandedDecoderC1E14QSharedPointerINS_8BitArrayEE@Base 3.3.0
 _ZN5zxing4oned3rss23AbstractExpandedDecoderC2E14QSharedPointerINS_8BitArrayEE@Base 3.3.0
 _ZN5zxing4oned3rss23AbstractExpandedDecoderD0Ev@Base 3.3.0
 _ZN5zxing4oned3rss23AbstractExpandedDecoderD1Ev@Base 3.3.0
 _ZN5zxing4oned3rss23AbstractExpandedDecoderD2Ev@Base 3.3.0
 _ZN5zxing4oned3rss4Pair14incrementCountEv@Base 3.3.0
 _ZN5zxing4oned3rss4Pair16getFinderPatternEv@Base 3.3.0
 _ZN5zxing4oned3rss4PairC1EiiNS1_13FinderPatternE@Base 3.3.0
 _ZN5zxing4oned3rss4PairC1Ev@Base 3.3.0
 _ZN5zxing4oned3rss4PairC2EiiNS1_13FinderPatternE@Base 3.3.0
 _ZN5zxing4oned3rss4PairC2Ev@Base 3.3.0
 _ZN5zxing4oned3rss8RSSUtils11getRSSvalueESt6vectorIiSaIiEEib@Base 3.3.0
 _ZN5zxing4oned3rss8RSSUtils7combinsEii@Base 3.3.0
 _ZN5zxing4oned9ITFReader11decodeDigitERSt6vectorIiSaIiEE@Base 3.3.0
 _ZN5zxing4oned9ITFReader11decodeStartE14QSharedPointerINS_8BitArrayEE@Base 3.3.0
 _ZN5zxing4oned9ITFReader12decodeMiddleE14QSharedPointerINS_8BitArrayEEiiRNSt7__cxx1112basic_stringIcSt11char_traitsIcESaIcEEE@Base 3.3.0
 _ZN5zxing4oned9ITFReader14skipWhiteSpaceE14QSharedPointerINS_8BitArrayEE@Base 3.3.0
 _ZN5zxing4oned9ITFReader16findGuardPatternE14QSharedPointerINS_8BitArrayEEiRKSt6vectorIiSaIiEE@Base 3.3.0
 _ZN5zxing4oned9ITFReader17validateQuietZoneE14QSharedPointerINS_8BitArrayEEi@Base 3.3.0
 _ZN5zxing4oned9ITFReader9decodeEndE14QSharedPointerINS_8BitArrayEE@Base 3.3.0
 _ZN5zxing4oned9ITFReader9decodeRowEi14QSharedPointerINS_8BitArrayEENS_11DecodeHintsE@Base 3.3.0
 _ZN5zxing4oned9ITFReaderC1Ev@Base 3.3.0
 _ZN5zxing4oned9ITFReaderC2Ev@Base 3.3.0
 _ZN5zxing4oned9ITFReaderD0Ev@Base 3.3.0
 _ZN5zxing4oned9ITFReaderD1Ev@Base 3.3.0
 _ZN5zxing4oned9ITFReaderD2Ev@Base 3.3.0
 _ZN5zxing5aztec11AztecReader10getDecoderEv@Base 3.3.0
 _ZN5zxing5aztec11AztecReader6decodeE14QSharedPointerINS_12BinaryBitmapEE@Base 3.3.0
 _ZN5zxing5aztec11AztecReader6decodeE14QSharedPointerINS_12BinaryBitmapEENS_11DecodeHintsE@Base 3.3.0
 _ZN5zxing5aztec11AztecReaderC1Ev@Base 3.3.0
 _ZN5zxing5aztec11AztecReaderC2Ev@Base 3.3.0
 _ZN5zxing5aztec11AztecReaderD0Ev@Base 3.3.0
 _ZN5zxing5aztec11AztecReaderD1Ev@Base 3.3.0
 _ZN5zxing5aztec11AztecReaderD2Ev@Base 3.3.0
 _ZN5zxing5aztec19AztecDetectorResult11getNBLayersEv@Base 3.3.0
 _ZN5zxing5aztec19AztecDetectorResult15getNBDatablocksEv@Base 3.3.0
 _ZN5zxing5aztec19AztecDetectorResult9isCompactEv@Base 3.3.0
 _ZN5zxing5aztec19AztecDetectorResultC1E14QSharedPointerINS_9BitMatrixEES2_ISt6vectorIS2_INS_11ResultPointEESaIS7_EEEbii@Base 3.3.0
 _ZN5zxing5aztec19AztecDetectorResultC2E14QSharedPointerINS_9BitMatrixEES2_ISt6vectorIS2_INS_11ResultPointEESaIS7_EEEbii@Base 3.3.0
 _ZN5zxing5aztec5Point13toResultPointEv@Base 3.3.0
 _ZN5zxing5aztec7Decoder11correctBitsE14QSharedPointerINS_8BitArrayEE@Base 3.3.0
 _ZN5zxing5aztec7Decoder11extractBitsE14QSharedPointerINS_9BitMatrixEE@Base 3.3.0
 _ZN5zxing5aztec7Decoder12getCharacterENS1_5TableEi@Base 3.3.0
 _ZN5zxing5aztec7Decoder14getEncodedDataE14QSharedPointerINS_8BitArrayEE@Base 3.3.0
 _ZN5zxing5aztec7Decoder17removeDashedLinesE14QSharedPointerINS_9BitMatrixEE@Base 3.3.0
 _ZN5zxing5aztec7Decoder6decodeE14QSharedPointerINS0_19AztecDetectorResultEE@Base 3.3.0
 _ZN5zxing5aztec7Decoder8getTableEc@Base 3.3.0
 _ZN5zxing5aztec7Decoder8readCodeE14QSharedPointerINS_8BitArrayEEii@Base 3.3.0
 _ZN5zxing5aztec7DecoderC1Ev@Base 3.3.0
 _ZN5zxing5aztec7DecoderC2Ev@Base 3.3.0
 _ZN5zxing5aztec8Detector10sampleGridE14QSharedPointerINS_9BitMatrixEES2_INS_11ResultPointEES6_S6_S6_@Base 3.3.0
 _ZN5zxing5aztec8Detector10sampleLineE14QSharedPointerINS0_5PointEES4_i@Base 3.3.0
 _ZN5zxing5aztec8Detector13getParametersE14QSharedPointerINS_8BitArrayEE@Base 3.3.0
 _ZN5zxing5aztec8Detector15getMatrixCenterEv@Base 3.3.0
 _ZN5zxing5aztec8Detector17extractParametersESt6vectorI14QSharedPointerINS0_5PointEESaIS5_EE@Base 3.3.0
 _ZN5zxing5aztec8Detector17getFirstDifferentE14QSharedPointerINS0_5PointEEbii@Base 3.3.0
 _ZN5zxing5aztec8Detector20correctParameterDataE14QSharedPointerINS_8BitArrayEEb@Base 3.3.0
 _ZN5zxing5aztec8Detector21getMatrixCornerPointsESt6vectorI14QSharedPointerINS0_5PointEESaIS5_EE@Base 3.3.0
 _ZN5zxing5aztec8Detector22getBullEyeCornerPointsE14QSharedPointerINS0_5PointEE@Base 3.3.0
 _ZN5zxing5aztec8Detector23isWhiteOrBlackRectangleE14QSharedPointerINS0_5PointEES4_S4_S4_@Base 3.3.0
 _ZN5zxing5aztec8Detector6detectEv@Base 3.3.0
 _ZN5zxing5aztec8Detector7isValidEii@Base 3.3.0
 _ZN5zxing5aztec8Detector8distanceE14QSharedPointerINS0_5PointEES4_@Base 3.3.0
 _ZN5zxing5aztec8Detector8getColorE14QSharedPointerINS0_5PointEES4_@Base 3.3.0
 _ZN5zxing5aztec8DetectorC1E14QSharedPointerINS_9BitMatrixEE@Base 3.3.0
 _ZN5zxing5aztec8DetectorC2E14QSharedPointerINS_9BitMatrixEE@Base 3.3.0
 _ZN5zxing5multi13MultiDetector11detectMultiENS_11DecodeHintsE@Base 3.3.0
 _ZN5zxing5multi13MultiDetectorC1E14QSharedPointerINS_9BitMatrixEE@Base 3.3.0
 _ZN5zxing5multi13MultiDetectorC2E14QSharedPointerINS_9BitMatrixEE@Base 3.3.0
 _ZN5zxing5multi13MultiDetectorD0Ev@Base 3.3.0
 _ZN5zxing5multi13MultiDetectorD1Ev@Base 3.3.0
 _ZN5zxing5multi13MultiDetectorD2Ev@Base 3.3.0
 _ZN5zxing5multi16ByQuadrantReader6decodeE14QSharedPointerINS_12BinaryBitmapEE@Base 3.3.0
 _ZN5zxing5multi16ByQuadrantReader6decodeE14QSharedPointerINS_12BinaryBitmapEENS_11DecodeHintsE@Base 3.3.0
 _ZN5zxing5multi16ByQuadrantReaderC1ERNS_6ReaderE@Base 3.3.0
 _ZN5zxing5multi16ByQuadrantReaderC2ERNS_6ReaderE@Base 3.3.0
 _ZN5zxing5multi16ByQuadrantReaderD0Ev@Base 3.3.0
 _ZN5zxing5multi16ByQuadrantReaderD1Ev@Base 3.3.0
 _ZN5zxing5multi16ByQuadrantReaderD2Ev@Base 3.3.0
 _ZN5zxing5multi17QRCodeMultiReader14decodeMultipleE14QSharedPointerINS_12BinaryBitmapEENS_11DecodeHintsE@Base 3.3.0
 _ZN5zxing5multi17QRCodeMultiReaderC1Ev@Base 3.3.0
 _ZN5zxing5multi17QRCodeMultiReaderC2Ev@Base 3.3.0
 _ZN5zxing5multi17QRCodeMultiReaderD0Ev@Base 3.3.0
 _ZN5zxing5multi17QRCodeMultiReaderD1Ev@Base 3.3.0
 _ZN5zxing5multi17QRCodeMultiReaderD2Ev@Base 3.3.0
 _ZN5zxing5multi21MultipleBarcodeReader14decodeMultipleE14QSharedPointerINS_12BinaryBitmapEE@Base 3.3.0
 _ZN5zxing5multi21MultipleBarcodeReaderD0Ev@Base 3.3.0
 _ZN5zxing5multi21MultipleBarcodeReaderD1Ev@Base 3.3.0
 _ZN5zxing5multi21MultipleBarcodeReaderD2Ev@Base 3.3.0
 _ZN5zxing5multi24MultiFinderPatternFinder18selectBestPatternsEv@Base 3.3.0
 _ZN5zxing5multi24MultiFinderPatternFinder19DIFF_MODSIZE_CUTOFFE@Base 3.3.0
 _ZN5zxing5multi24MultiFinderPatternFinder25MAX_MODULE_COUNT_PER_EDGEE@Base 3.3.0
 _ZN5zxing5multi24MultiFinderPatternFinder25MIN_MODULE_COUNT_PER_EDGEE@Base 3.3.0
 _ZN5zxing5multi24MultiFinderPatternFinder27DIFF_MODSIZE_CUTOFF_PERCENTE@Base 3.3.0
 _ZN5zxing5multi24MultiFinderPatternFinder9findMultiERKNS_11DecodeHintsE@Base 3.3.0
 _ZN5zxing5multi24MultiFinderPatternFinderC1E14QSharedPointerINS_9BitMatrixEES2_INS_19ResultPointCallbackEE@Base 3.3.0
 _ZN5zxing5multi24MultiFinderPatternFinderC2E14QSharedPointerINS_9BitMatrixEES2_INS_19ResultPointCallbackEE@Base 3.3.0
 _ZN5zxing5multi24MultiFinderPatternFinderD0Ev@Base 3.3.0
 _ZN5zxing5multi24MultiFinderPatternFinderD1Ev@Base 3.3.0
 _ZN5zxing5multi24MultiFinderPatternFinderD2Ev@Base 3.3.0
 _ZN5zxing5multi28GenericMultipleBarcodeReader14decodeMultipleE14QSharedPointerINS_12BinaryBitmapEENS_11DecodeHintsE@Base 3.3.0
 _ZN5zxing5multi28GenericMultipleBarcodeReader16doDecodeMultipleE14QSharedPointerINS_12BinaryBitmapEENS_11DecodeHintsERSt6vectorIS2_INS_6ResultEESaIS8_EEiii@Base 3.3.0
 _ZN5zxing5multi28GenericMultipleBarcodeReader21translateResultPointsE14QSharedPointerINS_6ResultEEii@Base 3.3.0
 _ZN5zxing5multi28GenericMultipleBarcodeReaderC1ERNS_6ReaderE@Base 3.3.0
 _ZN5zxing5multi28GenericMultipleBarcodeReaderC2ERNS_6ReaderE@Base 3.3.0
 _ZN5zxing5multi28GenericMultipleBarcodeReaderD0Ev@Base 3.3.0
 _ZN5zxing5multi28GenericMultipleBarcodeReaderD1Ev@Base 3.3.0
 _ZN5zxing5multi28GenericMultipleBarcodeReaderD2Ev@Base 3.3.0
 _ZN5zxing6Reader6decodeE14QSharedPointerINS_12BinaryBitmapEE@Base 3.3.0
 _ZN5zxing6ReaderD0Ev@Base 3.3.0
 _ZN5zxing6ReaderD1Ev@Base 3.3.0
 _ZN5zxing6ReaderD2Ev@Base 3.3.0
 _ZN5zxing6Result11getMetadataEv@Base 3.3.0
 _ZN5zxing6Result11getRawBytesEv@Base 3.3.0
 _ZN5zxing6Result15getResultPointsEv@Base 3.3.0
 _ZN5zxing6Result7getTextEv@Base 3.3.0
 _ZN5zxing6ResultC1E14QSharedPointerINS_6StringEES1_ISt6vectorIhSaIhEEES1_IS4_IS1_INS_11ResultPointEESaIS9_EEENS_13BarcodeFormatERKNSt7__cxx1112basic_stringIcSt11char_traitsIcESaIcEEENS_14ResultMetadataE@Base 3.3.0
 _ZN5zxing6ResultC2E14QSharedPointerINS_6StringEES1_ISt6vectorIhSaIhEEES1_IS4_IS1_INS_11ResultPointEESaIS9_EEENS_13BarcodeFormatERKNSt7__cxx1112basic_stringIcSt11char_traitsIcESaIcEEENS_14ResultMetadataE@Base 3.3.0
 _ZN5zxing6ResultD1Ev@Base 3.3.0
 _ZN5zxing6ResultD2Ev@Base 3.3.0
 _ZN5zxing6String6appendERKNSt7__cxx1112basic_stringIcSt11char_traitsIcESaIcEEE@Base 3.3.0
 _ZN5zxing6String6appendEc@Base 3.3.0
 _ZN5zxing6StringC1ERKNSt7__cxx1112basic_stringIcSt11char_traitsIcESaIcEEE@Base 3.3.0
 _ZN5zxing6StringC1Ei@Base 3.3.0
 _ZN5zxing6StringC2ERKNSt7__cxx1112basic_stringIcSt11char_traitsIcESaIcEEE@Base 3.3.0
 _ZN5zxing6StringC2Ei@Base 3.3.0
 _ZN5zxing6common11StringUtils13guessEncodingEPhiRKSt3mapIjNSt7__cxx1112basic_stringIcSt11char_traitsIcESaIcEEESt4lessIjESaISt4pairIKjS9_EEE@Base 3.3.0
 _ZN5zxing6common11StringUtils16ASSUME_SHIFT_JISE@Base 3.3.0
 _ZN5zxing6common11StringUtils25PLATFORM_DEFAULT_ENCODINGE@Base 3.3.0
 _ZN5zxing6common11StringUtils4UTF8E@Base 3.3.0
 _ZN5zxing6common11StringUtils5ASCIIE@Base 3.3.0
 _ZN5zxing6common11StringUtils6EUC_JPE@Base 3.3.0
 _ZN5zxing6common11StringUtils6GB2312E@Base 3.3.0
 _ZN5zxing6common11StringUtils8ISO88591E@Base 3.3.0
 _ZN5zxing6common11StringUtils8intToStrB5cxx11Ei@Base 3.3.0
 _ZN5zxing6common11StringUtils9SHIFT_JISE@Base 3.3.0
 _ZN5zxing6common15CharacterSetECI11NAME_TO_ECIB5cxx11E@Base 3.3.0
 _ZN5zxing6common15CharacterSetECI11init_tablesEv@Base 3.3.0
 _ZN5zxing6common15CharacterSetECI12VALUE_TO_ECIE@Base 3.3.0
 _ZN5zxing6common15CharacterSetECI15addCharacterSetERKSt6vectorIiSaIiEERKS2_IPKcSaIS8_EE@Base 3.3.0
 _ZN5zxing6common15CharacterSetECI22removeAllCharacterSetsEv@Base 3.3.0
 _ZN5zxing6common15CharacterSetECI24getCharacterSetECIByNameERKNSt7__cxx1112basic_stringIcSt11char_traitsIcESaIcEEE@Base 3.3.0
 _ZN5zxing6common15CharacterSetECI25getCharacterSetECIByValueEi@Base 3.3.0
 _ZN5zxing6common15CharacterSetECI6initedE@Base 3.3.0
 _ZN5zxing6common15CharacterSetECI9ECItablesE@Base 3.3.0
 _ZN5zxing6common15CharacterSetECIC1ESt6vectorIiSaIiEES2_IPKcSaIS6_EE@Base 3.3.0
 _ZN5zxing6common15CharacterSetECIC2ESt6vectorIiSaIiEES2_IPKcSaIS6_EE@Base 3.3.0
 _ZN5zxing6pdf41712PDF417Reader10moduleSizeE14QSharedPointerISt6vectorIiSaIiEEES2_INS_9BitMatrixEE@Base 3.3.0
 _ZN5zxing6pdf41712PDF417Reader14findPatternEndEii14QSharedPointerINS_9BitMatrixEE@Base 3.3.0
 _ZN5zxing6pdf41712PDF417Reader15extractPureBitsE14QSharedPointerINS_9BitMatrixEE@Base 3.3.0
 _ZN5zxing6pdf41712PDF417Reader16findPatternStartEii14QSharedPointerINS_9BitMatrixEE@Base 3.3.0
 _ZN5zxing6pdf41712PDF417Reader5resetEv@Base 3.3.0
 _ZN5zxing6pdf41712PDF417Reader6decodeE14QSharedPointerINS_12BinaryBitmapEENS_11DecodeHintsE@Base 3.3.0
 _ZN5zxing6pdf41712PDF417ReaderD0Ev@Base 3.3.0
 _ZN5zxing6pdf41712PDF417ReaderD1Ev@Base 3.3.0
 _ZN5zxing6pdf41712PDF417ReaderD2Ev@Base 3.3.0
 _ZN5zxing6pdf41722DecodedBitStreamParser10initEXP900Ev@Base 3.3.0
 _ZN5zxing6pdf41722DecodedBitStreamParser11EXP900_SIZEE@Base 3.3.0
 _ZN5zxing6pdf41722DecodedBitStreamParser11MIXED_CHARSE@Base 3.3.0
 _ZN5zxing6pdf41722DecodedBitStreamParser11PUNCT_CHARSE@Base 3.3.0
 _ZN5zxing6pdf41722DecodedBitStreamParser14byteCompactionEi14QSharedPointerISt6vectorIiSaIiEEEiS2_INS_6StringEE@Base 3.3.0
 _ZN5zxing6pdf41722DecodedBitStreamParser14textCompactionE14QSharedPointerISt6vectorIiSaIiEEEiS2_INS_6StringEE@Base 3.3.0
 _ZN5zxing6pdf41722DecodedBitStreamParser17numericCompactionE14QSharedPointerISt6vectorIiSaIiEEEiS2_INS_6StringEE@Base 3.3.0
 _ZN5zxing6pdf41722DecodedBitStreamParser20decodeTextCompactionE14QSharedPointerISt6vectorIiSaIiEEES6_iS2_INS_6StringEE@Base 3.3.0
 _ZN5zxing6pdf41722DecodedBitStreamParser21MAX_NUMERIC_CODEWORDSE@Base 3.3.0
 _ZN5zxing6pdf41722DecodedBitStreamParser21decodeBase900toBase10E14QSharedPointerISt6vectorIiSaIiEEEi@Base 3.3.0
 _ZN5zxing6pdf41722DecodedBitStreamParser23MACRO_PDF417_TERMINATORE@Base 3.3.0
 _ZN5zxing6pdf41722DecodedBitStreamParser26BYTE_COMPACTION_MODE_LATCHE@Base 3.3.0
 _ZN5zxing6pdf41722DecodedBitStreamParser26TEXT_COMPACTION_MODE_LATCHE@Base 3.3.0
 _ZN5zxing6pdf41722DecodedBitStreamParser28BYTE_COMPACTION_MODE_LATCH_6E@Base 3.3.0
 _ZN5zxing6pdf41722DecodedBitStreamParser29NUMERIC_COMPACTION_MODE_LATCHE@Base 3.3.0
 _ZN5zxing6pdf41722DecodedBitStreamParser2ALE@Base 3.3.0
 _ZN5zxing6pdf41722DecodedBitStreamParser2ASE@Base 3.3.0
 _ZN5zxing6pdf41722DecodedBitStreamParser2LLE@Base 3.3.0
 _ZN5zxing6pdf41722DecodedBitStreamParser2MLE@Base 3.3.0
 _ZN5zxing6pdf41722DecodedBitStreamParser2PLE@Base 3.3.0
 _ZN5zxing6pdf41722DecodedBitStreamParser2PSE@Base 3.3.0
 _ZN5zxing6pdf41722DecodedBitStreamParser32BEGIN_MACRO_PDF417_CONTROL_BLOCKE@Base 3.3.0
 _ZN5zxing6pdf41722DecodedBitStreamParser33BEGIN_MACRO_PDF417_OPTIONAL_FIELDE@Base 3.3.0
 _ZN5zxing6pdf41722DecodedBitStreamParser34MODE_SHIFT_TO_BYTE_COMPACTION_MODEE@Base 3.3.0
 _ZN5zxing6pdf41722DecodedBitStreamParser3PALE@Base 3.3.0
 _ZN5zxing6pdf41722DecodedBitStreamParser6EXP900E@Base 3.3.0
 _ZN5zxing6pdf41722DecodedBitStreamParser6decodeE14QSharedPointerISt6vectorIiSaIiEEE@Base 3.3.0
 _ZN5zxing6pdf41722DecodedBitStreamParserC1Ev@Base 3.3.0
 _ZN5zxing6pdf41722DecodedBitStreamParserC2Ev@Base 3.3.0
 _ZN5zxing6pdf4177decoder15BitMatrixParser10processRowEi14QSharedPointerISt6vectorIiSaIiEEEi@Base 3.3.0
 (subst)_ZN5zxing6pdf4177decoder15BitMatrixParser11getCodewordE{int64_t}Pi@Base 3.3.0
 _ZN5zxing6pdf4177decoder15BitMatrixParser12SYMBOL_TABLEE@Base 3.3.0
 _ZN5zxing6pdf4177decoder15BitMatrixParser13readCodewordsEv@Base 3.3.0
 _ZN5zxing6pdf4177decoder15BitMatrixParser14CODEWORD_TABLEE@Base 3.3.0
 _ZN5zxing6pdf4177decoder15BitMatrixParser15MAX_CW_CAPACITYE@Base 3.3.0
 _ZN5zxing6pdf4177decoder15BitMatrixParser17MODULES_IN_SYMBOLE@Base 3.3.0
 (subst)_ZN5zxing6pdf4177decoder15BitMatrixParser17findCodewordIndexE{int64_t}@Base 3.3.0
 _ZN5zxing6pdf4177decoder15BitMatrixParser18VerifyOuterColumnsEi@Base 3.3.0
 _ZN5zxing6pdf4177decoder15BitMatrixParser19SYMBOL_TABLE_LENGTHE@Base 3.3.0
 _ZN5zxing6pdf4177decoder15BitMatrixParser7IsEqualERiS3_i@Base 3.3.0
 _ZN5zxing6pdf4177decoder15BitMatrixParser8MAX_ROWSE@Base 3.3.0
 _ZN5zxing6pdf4177decoder15BitMatrixParser9trimArrayE14QSharedPointerISt6vectorIiSaIiEEEi@Base 3.3.0
 _ZN5zxing6pdf4177decoder15BitMatrixParserC1E14QSharedPointerINS_9BitMatrixEE@Base 3.3.0
 _ZN5zxing6pdf4177decoder15BitMatrixParserC2E14QSharedPointerINS_9BitMatrixEE@Base 3.3.0
 _ZN5zxing6pdf4177decoder15BitMatrixParserD1Ev@Base 3.3.0
 _ZN5zxing6pdf4177decoder15BitMatrixParserD2Ev@Base 3.3.0
 _ZN5zxing6pdf4177decoder2ec11ModulusPoly10evaluateAtEi@Base 3.3.0
 _ZN5zxing6pdf4177decoder2ec11ModulusPoly14getCoefficientEi@Base 3.3.0
 _ZN5zxing6pdf4177decoder2ec11ModulusPoly15getCoefficientsEv@Base 3.3.0
 _ZN5zxing6pdf4177decoder2ec11ModulusPoly18multiplyByMonomialEii@Base 3.3.0
 _ZN5zxing6pdf4177decoder2ec11ModulusPoly3addE14QSharedPointerIS3_E@Base 3.3.0
 _ZN5zxing6pdf4177decoder2ec11ModulusPoly6divideE14QSharedPointerIS3_E@Base 3.3.0
 _ZN5zxing6pdf4177decoder2ec11ModulusPoly6isZeroEv@Base 3.3.0
 _ZN5zxing6pdf4177decoder2ec11ModulusPoly8multiplyE14QSharedPointerIS3_E@Base 3.3.0
 _ZN5zxing6pdf4177decoder2ec11ModulusPoly8multiplyEi@Base 3.3.0
 _ZN5zxing6pdf4177decoder2ec11ModulusPoly8negativeEv@Base 3.3.0
 _ZN5zxing6pdf4177decoder2ec11ModulusPoly8subtractE14QSharedPointerIS3_E@Base 3.3.0
 _ZN5zxing6pdf4177decoder2ec11ModulusPoly9getDegreeEv@Base 3.3.0
 _ZN5zxing6pdf4177decoder2ec11ModulusPolyC1ERNS2_9ModulusGFE14QSharedPointerISt6vectorIiSaIiEEE@Base 3.3.0
 _ZN5zxing6pdf4177decoder2ec11ModulusPolyC2ERNS2_9ModulusGFE14QSharedPointerISt6vectorIiSaIiEEE@Base 3.3.0
 _ZN5zxing6pdf4177decoder2ec11ModulusPolyD1Ev@Base 3.3.0
 _ZN5zxing6pdf4177decoder2ec11ModulusPolyD2Ev@Base 3.3.0
 _ZN5zxing6pdf4177decoder2ec15ErrorCorrection18findErrorLocationsE14QSharedPointerINS2_11ModulusPolyEE@Base 3.3.0
 _ZN5zxing6pdf4177decoder2ec15ErrorCorrection19findErrorMagnitudesE14QSharedPointerINS2_11ModulusPolyEES6_S4_ISt6vectorIiSaIiEEE@Base 3.3.0
 _ZN5zxing6pdf4177decoder2ec15ErrorCorrection21runEuclideanAlgorithmE14QSharedPointerINS2_11ModulusPolyEES6_i@Base 3.3.0
 _ZN5zxing6pdf4177decoder2ec15ErrorCorrection6decodeE14QSharedPointerISt6vectorIiSaIiEEEiS8_@Base 3.3.0
 _ZN5zxing6pdf4177decoder2ec15ErrorCorrectionC1Ev@Base 3.3.0
 _ZN5zxing6pdf4177decoder2ec15ErrorCorrectionC2Ev@Base 3.3.0
 _ZN5zxing6pdf4177decoder2ec9ModulusGF13buildMonomialEii@Base 3.3.0
 _ZN5zxing6pdf4177decoder2ec9ModulusGF3addEii@Base 3.3.0
 _ZN5zxing6pdf4177decoder2ec9ModulusGF3expEi@Base 3.3.0
 _ZN5zxing6pdf4177decoder2ec9ModulusGF3logEi@Base 3.3.0
 _ZN5zxing6pdf4177decoder2ec9ModulusGF6getOneEv@Base 3.3.0
 _ZN5zxing6pdf4177decoder2ec9ModulusGF7getSizeEv@Base 3.3.0
 _ZN5zxing6pdf4177decoder2ec9ModulusGF7getZeroEv@Base 3.3.0
 _ZN5zxing6pdf4177decoder2ec9ModulusGF7inverseEi@Base 3.3.0
 _ZN5zxing6pdf4177decoder2ec9ModulusGF8multiplyEii@Base 3.3.0
 _ZN5zxing6pdf4177decoder2ec9ModulusGF8subtractEii@Base 3.3.0
 _ZN5zxing6pdf4177decoder2ec9ModulusGF9PDF417_GFE@Base 3.3.0
 _ZN5zxing6pdf4177decoder2ec9ModulusGFC1Eii@Base 3.3.0
 _ZN5zxing6pdf4177decoder2ec9ModulusGFC2Eii@Base 3.3.0
 _ZN5zxing6pdf4177decoder2ec9ModulusGFD1Ev@Base 3.3.0
 _ZN5zxing6pdf4177decoder2ec9ModulusGFD2Ev@Base 3.3.0
 _ZN5zxing6pdf4177decoder7Decoder10MAX_ERRORSE@Base 3.3.0
 _ZN5zxing6pdf4177decoder7Decoder13correctErrorsE14QSharedPointerISt6vectorIiSaIiEEES7_i@Base 3.3.0
 _ZN5zxing6pdf4177decoder7Decoder16MAX_EC_CODEWORDSE@Base 3.3.0
 _ZN5zxing6pdf4177decoder7Decoder19verifyCodewordCountE14QSharedPointerISt6vectorIiSaIiEEEi@Base 3.3.0
 _ZN5zxing6pdf4177decoder7Decoder6decodeE14QSharedPointerINS_9BitMatrixEERKNS_11DecodeHintsE@Base 3.3.0
 _ZN5zxing6pdf4178detector12LinesSampler12RATIOS_TABLEE@Base 3.3.0
 _ZN5zxing6pdf4178detector12LinesSampler12intersectionENS_4LineES3_@Base 3.3.0
 _ZN5zxing6pdf4178detector12LinesSampler14BARS_IN_SYMBOLE@Base 3.3.0
 _ZN5zxing6pdf4178detector12LinesSampler14decodeRowCountEiRSt6vectorIS3_IiSaIiEESaIS5_EERS5_@Base 3.3.0
 _ZN5zxing6pdf4178detector12LinesSampler15distributeVotesEiRKSt6vectorIS3_IiSaIiEESaIS5_EES9_@Base 3.3.0
 _ZN5zxing6pdf4178detector12LinesSampler16POSSIBLE_SYMBOLSE@Base 3.3.0
 _ZN5zxing6pdf4178detector12LinesSampler16findMissingLinesEiRSt6vectorIS3_IiSaIiEESaIS5_EE@Base 3.3.0
 _ZN5zxing6pdf4178detector12LinesSampler17MODULES_IN_SYMBOLE@Base 3.3.0
 _ZN5zxing6pdf4178detector12LinesSampler17init_ratios_tableEv@Base 3.3.0
 _ZN5zxing6pdf4178detector12LinesSampler19computeSymbolWidthsERSt6vectorIfSaIfEEi14QSharedPointerINS_9BitMatrixEE@Base 3.3.0
 _ZN5zxing6pdf4178detector12LinesSampler20BARCODE_START_OFFSETE@Base 3.3.0
 _ZN5zxing6pdf4178detector12LinesSampler20codewordsToBitMatrixERSt6vectorIS3_IiSaIiEESaIS5_EER14QSharedPointerINS_9BitMatrixEE@Base 3.3.0
 _ZN5zxing6pdf4178detector12LinesSampler22calculateClusterNumberEi@Base 3.3.0
 _ZN5zxing6pdf4178detector12LinesSampler22linesMatrixToCodewordsERSt6vectorIS3_IiSaIiEESaIS5_EEiRKS3_IfSaIfEE14QSharedPointerINS_9BitMatrixEES8_@Base 3.3.0
 _ZN5zxing6pdf4178detector12LinesSampler5roundEf@Base 3.3.0
 _ZN5zxing6pdf4178detector12LinesSampler6sampleEv@Base 3.3.0
 _ZN5zxing6pdf4178detector12LinesSamplerC1E14QSharedPointerINS_9BitMatrixEEi@Base 3.3.0
 _ZN5zxing6pdf4178detector12LinesSamplerC2E14QSharedPointerINS_9BitMatrixEEi@Base 3.3.0
 _ZN5zxing6pdf4178detector8Detector11sampleLinesERK14QSharedPointerISt6vectorIS3_INS_11ResultPointEESaIS6_EEEii@Base 3.3.0
 _ZN5zxing6pdf4178detector8Detector12STOP_PATTERNE@Base 3.3.0
 _ZN5zxing6pdf4178detector8Detector12findVerticesE14QSharedPointerINS_9BitMatrixEEi@Base 3.3.0
 _ZN5zxing6pdf4178detector8Detector12intersectionENS_4LineES3_@Base 3.3.0
 _ZN5zxing6pdf4178detector8Detector13START_PATTERNE@Base 3.3.0
 _ZN5zxing6pdf4178detector8Detector15correctVerticesE14QSharedPointerINS_9BitMatrixEERS3_ISt6vectorIS3_INS_11ResultPointEESaIS8_EEEb@Base 3.3.0
 _ZN5zxing6pdf4178detector8Detector15findVertices180E14QSharedPointerINS_9BitMatrixEEi@Base 3.3.0
 _ZN5zxing6pdf4178detector8Detector16MAX_AVG_VARIANCEE@Base 3.3.0
 _ZN5zxing6pdf4178detector8Detector16computeDimensionERK14QSharedPointerINS_11ResultPointEES7_S7_S7_f@Base 3.3.0
 _ZN5zxing6pdf4178detector8Detector16findGuardPatternE14QSharedPointerINS_9BitMatrixEEiiibPKiiRS3_ISt6vectorIiSaIiEEE@Base 3.3.0
 _ZN5zxing6pdf4178detector8Detector17computeYDimensionERK14QSharedPointerINS_11ResultPointEES7_S7_S7_f@Base 3.3.0
 _ZN5zxing6pdf4178detector8Detector17findCrossingPointER14QSharedPointerISt6vectorIS3_INS_11ResultPointEESaIS6_EEEiiiiiRS3_INS_9BitMatrixEE@Base 3.3.0
 _ZN5zxing6pdf4178detector8Detector18computeModuleWidthER14QSharedPointerISt6vectorIS3_INS_11ResultPointEESaIS6_EEE@Base 3.3.0
 _ZN5zxing6pdf4178detector8Detector19STOP_PATTERN_LENGTHE@Base 3.3.0
 _ZN5zxing6pdf4178detector8Detector20START_PATTERN_LENGTHE@Base 3.3.0
 _ZN5zxing6pdf4178detector8Detector20STOP_PATTERN_REVERSEE@Base 3.3.0
 _ZN5zxing6pdf4178detector8Detector20findWideBarTopBottomE14QSharedPointerINS_9BitMatrixEERS3_ISt6vectorIS3_INS_11ResultPointEESaIS8_EEEiiiii@Base 3.3.0
 _ZN5zxing6pdf4178detector8Detector20patternMatchVarianceER14QSharedPointerISt6vectorIiSaIiEEEPKii@Base 3.3.0
 _ZN5zxing6pdf4178detector8Detector21START_PATTERN_REVERSEE@Base 3.3.0
 _ZN5zxing6pdf4178detector8Detector23MAX_INDIVIDUAL_VARIANCEE@Base 3.3.0
 _ZN5zxing6pdf4178detector8Detector27STOP_PATTERN_REVERSE_LENGTHE@Base 3.3.0
 _ZN5zxing6pdf4178detector8Detector28START_PATTERN_REVERSE_LENGTHE@Base 3.3.0
 _ZN5zxing6pdf4178detector8Detector6detectERKNS_11DecodeHintsE@Base 3.3.0
 _ZN5zxing6pdf4178detector8Detector6detectEv@Base 3.3.0
 _ZN5zxing6pdf4178detector8DetectorC1E14QSharedPointerINS_12BinaryBitmapEE@Base 3.3.0
 _ZN5zxing6pdf4178detector8DetectorC2E14QSharedPointerINS_12BinaryBitmapEE@Base 3.3.0
 (subst)_ZN5zxing6qrcode10ByteMatrix3setE{size_t}{size_t}b@Base 3.3.0
 (subst)_ZN5zxing6qrcode10ByteMatrix3setE{size_t}{size_t}h@Base 3.3.0
 (subst)_ZN5zxing6qrcode10ByteMatrix3setE{size_t}{size_t}{size_t}@Base 3.3.0
 _ZN5zxing6qrcode10ByteMatrix5clearEh@Base 3.3.0
 (subst)_ZN5zxing6qrcode10ByteMatrixC1E{size_t}{size_t}@Base 3.3.0
 (subst)_ZN5zxing6qrcode10ByteMatrixC2E{size_t}{size_t}@Base 3.3.0
 _ZN5zxing6qrcode10MatrixUtil10findMSBSetEi@Base 3.3.0
 _ZN5zxing6qrcode10MatrixUtil11buildMatrixERKNS_8BitArrayERKNS0_20ErrorCorrectionLevelERNS0_7VersionEiRNS0_10ByteMatrixE@Base 3.3.0
 _ZN5zxing6qrcode10MatrixUtil13embedDataBitsERKNS_8BitArrayEiRNS0_10ByteMatrixE@Base 3.3.0
 _ZN5zxing6qrcode10MatrixUtil13embedTypeInfoERKNS0_20ErrorCorrectionLevelEiRNS0_10ByteMatrixE@Base 3.3.0
 _ZN5zxing6qrcode10MatrixUtil14TYPE_INFO_POLYE@Base 3.3.0
 _ZN5zxing6qrcode10MatrixUtil16calculateBCHCodeEii@Base 3.3.0
 _ZN5zxing6qrcode10MatrixUtil16makeTypeInfoBitsERKNS0_20ErrorCorrectionLevelEiRNS_8BitArrayE@Base 3.3.0
 _ZN5zxing6qrcode10MatrixUtil17VERSION_INFO_POLYE@Base 3.3.0
 _ZN5zxing6qrcode10MatrixUtil18embedBasicPatternsERKNS0_7VersionERNS0_10ByteMatrixE@Base 3.3.0
 _ZN5zxing6qrcode10MatrixUtil19embedTimingPatternsERNS0_10ByteMatrixE@Base 3.3.0
 _ZN5zxing6qrcode10MatrixUtil19makeVersionInfoBitsERKNS0_7VersionERNS_8BitArrayE@Base 3.3.0
 _ZN5zxing6qrcode10MatrixUtil21TYPE_INFO_COORDINATESE@Base 3.3.0
 _ZN5zxing6qrcode10MatrixUtil21maybeEmbedVersionInfoERKNS0_7VersionERNS0_10ByteMatrixE@Base 3.3.0
 _ZN5zxing6qrcode10MatrixUtil22TYPE_INFO_MASK_PATTERNE@Base 3.3.0
 _ZN5zxing6qrcode10MatrixUtil26POSITION_DETECTION_PATTERNE@Base 3.3.0
 _ZN5zxing6qrcode10MatrixUtil27POSITION_ADJUSTMENT_PATTERNE@Base 3.3.0
 (subst)_ZN5zxing6qrcode10MatrixUtil29embedPositionDetectionPatternE{size_t}{size_t}RNS0_10ByteMatrixE@Base 3.3.0
 _ZN5zxing6qrcode10MatrixUtil30embedDarkDotAtLeftBottomCornerERNS0_10ByteMatrixE@Base 3.3.0
 (subst)_ZN5zxing6qrcode10MatrixUtil30embedPositionAdjustmentPatternE{size_t}{size_t}RNS0_10ByteMatrixE@Base 3.3.0
 (subst)_ZN5zxing6qrcode10MatrixUtil30embedVerticalSeparationPatternE{size_t}{size_t}RNS0_10ByteMatrixE@Base 3.3.0
 (subst)_ZN5zxing6qrcode10MatrixUtil32embedHorizontalSeparationPatternE{size_t}{size_t}RNS0_10ByteMatrixE@Base 3.3.0
 _ZN5zxing6qrcode10MatrixUtil36maybeEmbedPositionAdjustmentPatternsERKNS0_7VersionERNS0_10ByteMatrixE@Base 3.3.0
 _ZN5zxing6qrcode10MatrixUtil43embedPositionDetectionPatternsAndSeparatorsERNS0_10ByteMatrixE@Base 3.3.0
 _ZN5zxing6qrcode10MatrixUtil44POSITION_ADJUSTMENT_PATTERN_COORDINATE_TABLEE@Base 3.3.0
 (subst)_ZN5zxing6qrcode11DataMask0008isMaskedE{size_t}{size_t}@Base 3.3.0
 _ZN5zxing6qrcode11DataMask000D0Ev@Base 3.3.0
 _ZN5zxing6qrcode11DataMask000D1Ev@Base 3.3.0
 _ZN5zxing6qrcode11DataMask000D2Ev@Base 3.3.0
 (subst)_ZN5zxing6qrcode11DataMask0018isMaskedE{size_t}{size_t}@Base 3.3.0
 _ZN5zxing6qrcode11DataMask001D0Ev@Base 3.3.0
 _ZN5zxing6qrcode11DataMask001D1Ev@Base 3.3.0
 _ZN5zxing6qrcode11DataMask001D2Ev@Base 3.3.0
 (subst)_ZN5zxing6qrcode11DataMask0108isMaskedE{size_t}{size_t}@Base 3.3.0
 _ZN5zxing6qrcode11DataMask010D0Ev@Base 3.3.0
 _ZN5zxing6qrcode11DataMask010D1Ev@Base 3.3.0
 _ZN5zxing6qrcode11DataMask010D2Ev@Base 3.3.0
 (subst)_ZN5zxing6qrcode11DataMask0118isMaskedE{size_t}{size_t}@Base 3.3.0
 _ZN5zxing6qrcode11DataMask011D0Ev@Base 3.3.0
 _ZN5zxing6qrcode11DataMask011D1Ev@Base 3.3.0
 _ZN5zxing6qrcode11DataMask011D2Ev@Base 3.3.0
 (subst)_ZN5zxing6qrcode11DataMask1008isMaskedE{size_t}{size_t}@Base 3.3.0
 _ZN5zxing6qrcode11DataMask100D0Ev@Base 3.3.0
 _ZN5zxing6qrcode11DataMask100D1Ev@Base 3.3.0
 _ZN5zxing6qrcode11DataMask100D2Ev@Base 3.3.0
 (subst)_ZN5zxing6qrcode11DataMask1018isMaskedE{size_t}{size_t}@Base 3.3.0
 _ZN5zxing6qrcode11DataMask101D0Ev@Base 3.3.0
 _ZN5zxing6qrcode11DataMask101D1Ev@Base 3.3.0
 _ZN5zxing6qrcode11DataMask101D2Ev@Base 3.3.0
 (subst)_ZN5zxing6qrcode11DataMask1108isMaskedE{size_t}{size_t}@Base 3.3.0
 _ZN5zxing6qrcode11DataMask110D0Ev@Base 3.3.0
 _ZN5zxing6qrcode11DataMask110D1Ev@Base 3.3.0
 _ZN5zxing6qrcode11DataMask110D2Ev@Base 3.3.0
 (subst)_ZN5zxing6qrcode11DataMask1118isMaskedE{size_t}{size_t}@Base 3.3.0
 _ZN5zxing6qrcode11DataMask111D0Ev@Base 3.3.0
 _ZN5zxing6qrcode11DataMask111D1Ev@Base 3.3.0
 _ZN5zxing6qrcode11DataMask111D2Ev@Base 3.3.0
 _ZN5zxing6qrcode12QRCodeReader10getDecoderEv@Base 3.3.0
 _ZN5zxing6qrcode12QRCodeReader6decodeE14QSharedPointerINS_12BinaryBitmapEENS_11DecodeHintsE@Base 3.3.0
 _ZN5zxing6qrcode12QRCodeReaderC1Ev@Base 3.3.0
 _ZN5zxing6qrcode12QRCodeReaderC2Ev@Base 3.3.0
 _ZN5zxing6qrcode12QRCodeReaderD0Ev@Base 3.3.0
 _ZN5zxing6qrcode12QRCodeReaderD1Ev@Base 3.3.0
 _ZN5zxing6qrcode12QRCodeReaderD2Ev@Base 3.3.0
 _ZN5zxing6qrcode13FinderPattern14incrementCountEv@Base 3.3.0
 _ZN5zxing6qrcode13FinderPatternC1Efff@Base 3.3.0
 _ZN5zxing6qrcode13FinderPatternC1Efffi@Base 3.3.0
 _ZN5zxing6qrcode13FinderPatternC2Efff@Base 3.3.0
 _ZN5zxing6qrcode13FinderPatternC2Efffi@Base 3.3.0
 _ZN5zxing6qrcode13FinderPatternD0Ev@Base 3.3.0
 _ZN5zxing6qrcode13FinderPatternD1Ev@Base 3.3.0
 _ZN5zxing6qrcode13FinderPatternD2Ev@Base 3.3.0
 _ZN5zxing6qrcode15BitMatrixParser11readVersionEv@Base 3.3.0
 _ZN5zxing6qrcode15BitMatrixParser13readCodewordsEv@Base 3.3.0
 _ZN5zxing6qrcode15BitMatrixParser21readFormatInformationEv@Base 3.3.0
 _ZN5zxing6qrcode15BitMatrixParser6mirrorEv@Base 3.3.0
 _ZN5zxing6qrcode15BitMatrixParser6remaskEv@Base 3.3.0
 (subst)_ZN5zxing6qrcode15BitMatrixParser7copyBitE{size_t}{size_t}i@Base 3.3.0
 _ZN5zxing6qrcode15BitMatrixParser9setMirrorEb@Base 3.3.0
 _ZN5zxing6qrcode15BitMatrixParserC1E14QSharedPointerINS_9BitMatrixEE@Base 3.3.0
 _ZN5zxing6qrcode15BitMatrixParserC2E14QSharedPointerINS_9BitMatrixEE@Base 3.3.0
 _ZN5zxing6qrcode15BitMatrixParserD1Ev@Base 3.3.0
 _ZN5zxing6qrcode15BitMatrixParserD2Ev@Base 3.3.0
 _ZN5zxing6qrcode16AlignmentPatternC1Efff@Base 3.3.0
 _ZN5zxing6qrcode16AlignmentPatternC2Efff@Base 3.3.0
 _ZN5zxing6qrcode16AlignmentPatternD0Ev@Base 3.3.0
 _ZN5zxing6qrcode16AlignmentPatternD1Ev@Base 3.3.0
 _ZN5zxing6qrcode16AlignmentPatternD2Ev@Base 3.3.0
 _ZN5zxing6qrcode17FinderPatternInfo10getTopLeftEv@Base 3.3.0
 _ZN5zxing6qrcode17FinderPatternInfo11getTopRightEv@Base 3.3.0
 _ZN5zxing6qrcode17FinderPatternInfo13getBottomLeftEv@Base 3.3.0
 _ZN5zxing6qrcode17FinderPatternInfoC1ESt6vectorI14QSharedPointerINS0_13FinderPatternEESaIS5_EE@Base 3.3.0
 _ZN5zxing6qrcode17FinderPatternInfoC2ESt6vectorI14QSharedPointerINS0_13FinderPatternEESaIS5_EE@Base 3.3.0
 _ZN5zxing6qrcode17FormatInformation11getDataMaskEv@Base 3.3.0
 _ZN5zxing6qrcode17FormatInformation16numBitsDifferingEii@Base 3.3.0
 _ZN5zxing6qrcode17FormatInformation19FORMAT_INFO_MASK_QRE@Base 3.3.0
 _ZN5zxing6qrcode17FormatInformation21BITS_SET_IN_HALF_BYTEE@Base 3.3.0
 _ZN5zxing6qrcode17FormatInformation23decodeFormatInformationEii@Base 3.3.0
 _ZN5zxing6qrcode17FormatInformation23getErrorCorrectionLevelEv@Base 3.3.0
 _ZN5zxing6qrcode17FormatInformation25FORMAT_INFO_DECODE_LOOKUPE@Base 3.3.0
 _ZN5zxing6qrcode17FormatInformation25doDecodeFormatInformationEii@Base 3.3.0
 _ZN5zxing6qrcode17FormatInformation28N_FORMAT_INFO_DECODE_LOOKUPSE@Base 3.3.0
 _ZN5zxing6qrcode17FormatInformationC1Ei@Base 3.3.0
 _ZN5zxing6qrcode17FormatInformationC2Ei@Base 3.3.0
 _ZN5zxing6qrcode19FinderPatternFinder11MAX_MODULESE@Base 3.3.0
 _ZN5zxing6qrcode19FinderPatternFinder11findRowSkipEv@Base 3.3.0
 _ZN5zxing6qrcode19FinderPatternFinder13CENTER_QUORUME@Base 3.3.0
 _ZN5zxing6qrcode19FinderPatternFinder13centerFromEndEPii@Base 3.3.0
 _ZN5zxing6qrcode19FinderPatternFinder15squaredDistanceE14QSharedPointerINS0_13FinderPatternEES4_@Base 3.3.0
 _ZN5zxing6qrcode19FinderPatternFinder17foundPatternCrossEPi@Base 3.3.0
 _ZN5zxing6qrcode19FinderPatternFinder17orderBestPatternsESt6vectorI14QSharedPointerINS0_13FinderPatternEESaIS5_EE@Base 3.3.0
 (subst)_ZN5zxing6qrcode19FinderPatternFinder18crossCheckVerticalE{size_t}{size_t}ii@Base 3.3.0
 _ZN5zxing6qrcode19FinderPatternFinder18getPossibleCentersEv@Base 3.3.0
 _ZN5zxing6qrcode19FinderPatternFinder18selectBestPatternsEv@Base 3.3.0
 (subst)_ZN5zxing6qrcode19FinderPatternFinder20crossCheckHorizontalE{size_t}{size_t}ii@Base 3.3.0
 (subst)_ZN5zxing6qrcode19FinderPatternFinder20handlePossibleCenterEPi{size_t}{size_t}@Base 3.3.0
 _ZN5zxing6qrcode19FinderPatternFinder28haveMultiplyConfirmedCentersEv@Base 3.3.0
 _ZN5zxing6qrcode19FinderPatternFinder4findERKNS_11DecodeHintsE@Base 3.3.0
 _ZN5zxing6qrcode19FinderPatternFinder8MIN_SKIPE@Base 3.3.0
 _ZN5zxing6qrcode19FinderPatternFinder8distanceE14QSharedPointerINS_11ResultPointEES4_@Base 3.3.0
 _ZN5zxing6qrcode19FinderPatternFinder8getImageEv@Base 3.3.0
 _ZN5zxing6qrcode19FinderPatternFinderC1E14QSharedPointerINS_9BitMatrixEERKS2_INS_19ResultPointCallbackEE@Base 3.3.0
 _ZN5zxing6qrcode19FinderPatternFinderC2E14QSharedPointerINS_9BitMatrixEERKS2_INS_19ResultPointCallbackEE@Base 3.3.0
 _ZN5zxing6qrcode19FinderPatternFinderD1Ev@Base 3.3.0
 _ZN5zxing6qrcode19FinderPatternFinderD2Ev@Base 3.3.0
 _ZN5zxing6qrcode20ErrorCorrectionLevel1HE@Base 3.3.0
 _ZN5zxing6qrcode20ErrorCorrectionLevel1LE@Base 3.3.0
 _ZN5zxing6qrcode20ErrorCorrectionLevel1ME@Base 3.3.0
 _ZN5zxing6qrcode20ErrorCorrectionLevel1QE@Base 3.3.0
 _ZN5zxing6qrcode20ErrorCorrectionLevel7forBitsEi@Base 3.3.0
 _ZN5zxing6qrcode20ErrorCorrectionLevel8FOR_BITSE@Base 3.3.0
 _ZN5zxing6qrcode20ErrorCorrectionLevel8N_LEVELSE@Base 3.3.0
 _ZN5zxing6qrcode20ErrorCorrectionLevelC1ERKS1_@Base 3.3.0
 _ZN5zxing6qrcode20ErrorCorrectionLevelC1EiiPKc@Base 3.3.0
 _ZN5zxing6qrcode20ErrorCorrectionLevelC2ERKS1_@Base 3.3.0
 _ZN5zxing6qrcode20ErrorCorrectionLevelC2EiiPKc@Base 3.3.0
 _ZN5zxing6qrcode20ErrorCorrectionLevelD1Ev@Base 3.3.0
 _ZN5zxing6qrcode20ErrorCorrectionLevelD2Ev@Base 3.3.0
 _ZN5zxing6qrcode20ErrorCorrectionLevelaSERKS1_@Base 3.3.0
 _ZN5zxing6qrcode22AlignmentPatternFinder13centerFromEndERSt6vectorIiSaIiEEi@Base 3.3.0
 _ZN5zxing6qrcode22AlignmentPatternFinder17foundPatternCrossERSt6vectorIiSaIiEE@Base 3.3.0
 _ZN5zxing6qrcode22AlignmentPatternFinder18crossCheckVerticalEiiii@Base 3.3.0
 _ZN5zxing6qrcode22AlignmentPatternFinder20handlePossibleCenterERSt6vectorIiSaIiEEii@Base 3.3.0
 _ZN5zxing6qrcode22AlignmentPatternFinder4findEv@Base 3.3.0
 _ZN5zxing6qrcode22AlignmentPatternFinderC1E14QSharedPointerINS_9BitMatrixEEiiiifRKS2_INS_19ResultPointCallbackEE@Base 3.3.0
 _ZN5zxing6qrcode22AlignmentPatternFinderC2E14QSharedPointerINS_9BitMatrixEEiiiifRKS2_INS_19ResultPointCallbackEE@Base 3.3.0
 _ZN5zxing6qrcode22AlignmentPatternFinderD1Ev@Base 3.3.0
 _ZN5zxing6qrcode22AlignmentPatternFinderD2Ev@Base 3.3.0
 _ZN5zxing6qrcode22DecodedBitStreamParser17decodeByteSegmentE14QSharedPointerINS_9BitSourceEERNSt7__cxx1112basic_stringIcSt11char_traitsIcESaIcEEEiPKNS_6common15CharacterSetECIES2_ISt6vectorIS2_ISG_IhSaIhEEESaISJ_EEERKSt3mapIjSA_St4lessIjESaISt4pairIKjSA_EEE@Base 3.3.0
 _ZN5zxing6qrcode22DecodedBitStreamParser18ALPHANUMERIC_CHARSE@Base 3.3.0
 _ZN5zxing6qrcode22DecodedBitStreamParser18decodeHanziSegmentE14QSharedPointerINS_9BitSourceEERNSt7__cxx1112basic_stringIcSt11char_traitsIcESaIcEEEi@Base 3.3.0
 _ZN5zxing6qrcode22DecodedBitStreamParser18decodeKanjiSegmentE14QSharedPointerINS_9BitSourceEERNSt7__cxx1112basic_stringIcSt11char_traitsIcESaIcEEEi@Base 3.3.0
 (subst)_ZN5zxing6qrcode22DecodedBitStreamParser18toAlphaNumericCharE{size_t}@Base 3.3.0
 _ZN5zxing6qrcode22DecodedBitStreamParser20decodeNumericSegmentE14QSharedPointerINS_9BitSourceEERNSt7__cxx1112basic_stringIcSt11char_traitsIcESaIcEEEi@Base 3.3.0
 _ZN5zxing6qrcode22DecodedBitStreamParser25decodeAlphanumericSegmentE14QSharedPointerINS_9BitSourceEERNSt7__cxx1112basic_stringIcSt11char_traitsIcESaIcEEEib@Base 3.3.0
 (subst)_ZN5zxing6qrcode22DecodedBitStreamParser6appendERNSt7__cxx1112basic_stringIcSt11char_traitsIcESaIcEEEPKh{size_t}PKc@Base 3.3.0
 _ZN5zxing6qrcode22DecodedBitStreamParser6appendERNSt7__cxx1112basic_stringIcSt11char_traitsIcESaIcEEERKS7_PKc@Base 3.3.0
 _ZN5zxing6qrcode22DecodedBitStreamParser6decodeE14QSharedPointerISt6vectorIhSaIhEEES2_INS0_7VersionEERKNS0_20ErrorCorrectionLevelERKSt3mapIjNSt7__cxx1112basic_stringIcSt11char_traitsIcESaIcEEESt4lessIjESaISt4pairIKjSI_EEE@Base 3.3.0
 _ZN5zxing6qrcode3ECB16getDataCodewordsEv@Base 3.3.0
 _ZN5zxing6qrcode3ECB8getCountEv@Base 3.3.0
 _ZN5zxing6qrcode3ECBC1Eii@Base 3.3.0
 _ZN5zxing6qrcode3ECBC2Eii@Base 3.3.0
 _ZN5zxing6qrcode4Mode10TERMINATORE@Base 3.3.0
 _ZN5zxing6qrcode4Mode12ALPHANUMERICE@Base 3.3.0
 _ZN5zxing6qrcode4Mode17STRUCTURED_APPENDE@Base 3.3.0
 _ZN5zxing6qrcode4Mode19FNC1_FIRST_POSITIONE@Base 3.3.0
 _ZN5zxing6qrcode4Mode20FNC1_SECOND_POSITIONE@Base 3.3.0
 _ZN5zxing6qrcode4Mode3ECIE@Base 3.3.0
 _ZN5zxing6qrcode4Mode4BYTEE@Base 3.3.0
 _ZN5zxing6qrcode4Mode5HANZIE@Base 3.3.0
 _ZN5zxing6qrcode4Mode5KANJIE@Base 3.3.0
 _ZN5zxing6qrcode4Mode7NUMERICE@Base 3.3.0
 _ZN5zxing6qrcode4Mode7forBitsEi@Base 3.3.0
 _ZN5zxing6qrcode4ModeC1ERKS1_@Base 3.3.0
 _ZN5zxing6qrcode4ModeC1EiiiiRKNSt7__cxx1112basic_stringIcSt11char_traitsIcESaIcEEE@Base 3.3.0
 _ZN5zxing6qrcode4ModeC1Ev@Base 3.3.0
 _ZN5zxing6qrcode4ModeC2ERKS1_@Base 3.3.0
 _ZN5zxing6qrcode4ModeC2EiiiiRKNSt7__cxx1112basic_stringIcSt11char_traitsIcESaIcEEE@Base 3.3.0
 _ZN5zxing6qrcode4ModeC2Ev@Base 3.3.0
 _ZN5zxing6qrcode4ModeD1Ev@Base 3.3.0
 _ZN5zxing6qrcode4ModeD2Ev@Base 3.3.0
 _ZN5zxing6qrcode4ModeaSERKS1_@Base 3.3.0
 _ZN5zxing6qrcode4ModeeqERKS1_@Base 3.3.0
 _ZN5zxing6qrcode4ModeneERKS1_@Base 3.3.0
 _ZN5zxing6qrcode6QRCode10setECLevelE14QSharedPointerINS0_20ErrorCorrectionLevelEE@Base 3.3.0
 _ZN5zxing6qrcode6QRCode10setVersionE14QSharedPointerINS0_7VersionEE@Base 3.3.0
 _ZN5zxing6qrcode6QRCode14setMaskPatternEi@Base 3.3.0
 _ZN5zxing6qrcode6QRCode7setModeERKNS0_4ModeE@Base 3.3.0
 _ZN5zxing6qrcode6QRCode9setMatrixE14QSharedPointerINS0_10ByteMatrixEE@Base 3.3.0
 _ZN5zxing6qrcode6QRCodeC1Ev@Base 3.3.0
 _ZN5zxing6qrcode6QRCodeC2Ev@Base 3.3.0
 _ZN5zxing6qrcode6QRCodeD1Ev@Base 3.3.0
 _ZN5zxing6qrcode6QRCodeD2Ev@Base 3.3.0
 _ZN5zxing6qrcode7Decoder13correctErrorsE14QSharedPointerISt6vectorIhSaIhEEEi@Base 3.3.0
 _ZN5zxing6qrcode7Decoder6decodeE14QSharedPointerINS_9BitMatrixEE@Base 3.3.0
 _ZN5zxing6qrcode7DecoderC1Ev@Base 3.3.0
 _ZN5zxing6qrcode7DecoderC2Ev@Base 3.3.0
 _ZN5zxing6qrcode7Encoder10chooseModeERKNSt7__cxx1112basic_stringIwSt11char_traitsIwESaIwEEERKNS3_IcS4_IcESaIcEEE@Base 3.3.0
 _ZN5zxing6qrcode7Encoder11appendBytesERKNSt7__cxx1112basic_stringIwSt11char_traitsIwESaIwEEERNS0_4ModeERNS_8BitArrayERKNS3_IcS4_IcESaIcEEE@Base 3.3.0
 _ZN5zxing6qrcode7Encoder13chooseVersionEiRKNS0_20ErrorCorrectionLevelE@Base 3.3.0
 _ZN5zxing6qrcode7Encoder13terminateBitsEiRNS_8BitArrayE@Base 3.3.0
 _ZN5zxing6qrcode7Encoder14appendModeInfoERKNS0_4ModeERNS_8BitArrayE@Base 3.3.0
 _ZN5zxing6qrcode7Encoder15append8BitBytesERKNSt7__cxx1112basic_stringIwSt11char_traitsIwESaIwEEERNS_8BitArrayERKNS3_IcS4_IcESaIcEEE@Base 3.3.0
 _ZN5zxing6qrcode7Encoder15generateECBytesERKSt6vectorIhSaIhEEi@Base 3.3.0
 _ZN5zxing6qrcode7Encoder16appendKanjiBytesERKNSt7__cxx1112basic_stringIwSt11char_traitsIwESaIwEEERNS_8BitArrayE@Base 3.3.0
 _ZN5zxing6qrcode7Encoder16appendLengthInfoEi14QSharedPointerINS0_7VersionEERKNS0_4ModeERNS_8BitArrayE@Base 3.3.0
 _ZN5zxing6qrcode7Encoder16recommendVersionERNS0_20ErrorCorrectionLevelERNS0_4ModeERNS_8BitArrayES7_@Base 3.3.0
 _ZN5zxing6qrcode7Encoder17chooseMaskPatternE14QSharedPointerINS_8BitArrayEERNS0_20ErrorCorrectionLevelES2_INS0_7VersionEES2_INS0_10ByteMatrixEE@Base 3.3.0
 _ZN5zxing6qrcode7Encoder18ALPHANUMERIC_TABLEE@Base 3.3.0
 _ZN5zxing6qrcode7Encoder18appendNumericBytesERKNSt7__cxx1112basic_stringIwSt11char_traitsIwESaIwEEERNS_8BitArrayE@Base 3.3.0
 _ZN5zxing6qrcode7Encoder19calculateBitsNeededERKNS0_4ModeERKNS_8BitArrayES7_14QSharedPointerINS0_7VersionEE@Base 3.3.0
 _ZN5zxing6qrcode7Encoder19getAlphanumericCodeEi@Base 3.3.0
 _ZN5zxing6qrcode7Encoder20calculateMaskPenaltyERKNS0_10ByteMatrixE@Base 3.3.0
 _ZN5zxing6qrcode7Encoder21interleaveWithECBytesERKNS_8BitArrayEiii@Base 3.3.0
 _ZN5zxing6qrcode7Encoder23ALPHANUMERIC_TABLE_SIZEE@Base 3.3.0
 _ZN5zxing6qrcode7Encoder23appendAlphanumericBytesERKNSt7__cxx1112basic_stringIwSt11char_traitsIwESaIwEEERNS_8BitArrayE@Base 3.3.0
 _ZN5zxing6qrcode7Encoder26DEFAULT_BYTE_MODE_ENCODINGB5cxx11E@Base 3.3.0
 _ZN5zxing6qrcode7Encoder38getNumDataBytesAndNumECBytesForBlockIDEiiiiRSt6vectorIiSaIiEES5_@Base 3.3.0
 _ZN5zxing6qrcode7Encoder6encodeERKNSt7__cxx1112basic_stringIwSt11char_traitsIwESaIwEEERNS0_20ErrorCorrectionLevelE@Base 3.3.0
 _ZN5zxing6qrcode7Encoder6encodeERKNSt7__cxx1112basic_stringIwSt11char_traitsIwESaIwEEERNS0_20ErrorCorrectionLevelEPKNS_10EncodeHintE@Base 3.3.0
 _ZN5zxing6qrcode7Encoder7willFitEi14QSharedPointerINS0_7VersionEERKNS0_20ErrorCorrectionLevelE@Base 3.3.0
 _ZN5zxing6qrcode7Encoder9appendECIERKNS_6common15CharacterSetECIERNS_8BitArrayE@Base 3.3.0
 _ZN5zxing6qrcode7Version13buildVersionsEv@Base 3.3.0
 _ZN5zxing6qrcode7Version17getTotalCodewordsEv@Base 3.3.0
 _ZN5zxing6qrcode7Version19VERSION_DECODE_INFOE@Base 3.3.0
 _ZN5zxing6qrcode7Version19getVersionForNumberEi@Base 3.3.0
 _ZN5zxing6qrcode7Version20buildFunctionPatternEv@Base 3.3.0
 _ZN5zxing6qrcode7Version22N_VERSION_DECODE_INFOSE@Base 3.3.0
 _ZN5zxing6qrcode7Version22getDimensionForVersionEv@Base 3.3.0
 _ZN5zxing6qrcode7Version24decodeVersionInformationEj@Base 3.3.0
 _ZN5zxing6qrcode7Version26getAlignmentPatternCentersEv@Base 3.3.0
 _ZN5zxing6qrcode7Version33getProvisionalVersionForDimensionEi@Base 3.3.0
 _ZN5zxing6qrcode7Version8VERSIONSE@Base 3.3.0
 _ZN5zxing6qrcode7VersionC1EiPSt6vectorIiSaIiEEPNS0_8ECBlocksES7_S7_S7_@Base 3.3.0
 _ZN5zxing6qrcode7VersionC2EiPSt6vectorIiSaIiEEPNS0_8ECBlocksES7_S7_S7_@Base 3.3.0
 _ZN5zxing6qrcode7VersionD1Ev@Base 3.3.0
 _ZN5zxing6qrcode7VersionD2Ev@Base 3.3.0
 _ZN5zxing6qrcode8DataMask10DATA_MASKSE@Base 3.3.0
 _ZN5zxing6qrcode8DataMask12forReferenceEi@Base 3.3.0
 _ZN5zxing6qrcode8DataMask14buildDataMasksEv@Base 3.3.0
 (subst)_ZN5zxing6qrcode8DataMask15unmaskBitMatrixERNS_9BitMatrixE{size_t}@Base 3.3.0
 _ZN5zxing6qrcode8DataMaskC1Ev@Base 3.3.0
 _ZN5zxing6qrcode8DataMaskC2Ev@Base 3.3.0
 _ZN5zxing6qrcode8DataMaskD0Ev@Base 3.3.0
 _ZN5zxing6qrcode8DataMaskD1Ev@Base 3.3.0
 _ZN5zxing6qrcode8DataMaskD2Ev@Base 3.3.0
 _ZN5zxing6qrcode8Detector10sampleGridE14QSharedPointerINS_9BitMatrixEEiS2_INS_20PerspectiveTransformEE@Base 3.3.0
 _ZN5zxing6qrcode8Detector15createTransformE14QSharedPointerINS_11ResultPointEES4_S4_S4_i@Base 3.3.0
 _ZN5zxing6qrcode8Detector16computeDimensionE14QSharedPointerINS_11ResultPointEES4_S4_f@Base 3.3.0
 _ZN5zxing6qrcode8Detector19calculateModuleSizeE14QSharedPointerINS_11ResultPointEES4_S4_@Base 3.3.0
 _ZN5zxing6qrcode8Detector21findAlignmentInRegionEfiif@Base 3.3.0
 _ZN5zxing6qrcode8Detector24processFinderPatternInfoE14QSharedPointerINS0_17FinderPatternInfoEE@Base 3.3.0
 _ZN5zxing6qrcode8Detector24sizeOfBlackWhiteBlackRunEiiii@Base 3.3.0
 _ZN5zxing6qrcode8Detector25calculateModuleSizeOneWayE14QSharedPointerINS_11ResultPointEES4_@Base 3.3.0
 _ZN5zxing6qrcode8Detector32sizeOfBlackWhiteBlackRunBothWaysEiiii@Base 3.3.0
 _ZN5zxing6qrcode8Detector6detectERKNS_11DecodeHintsE@Base 3.3.0
 _ZN5zxing6qrcode8DetectorC1E14QSharedPointerINS_9BitMatrixEE@Base 3.3.0
 _ZN5zxing6qrcode8DetectorC2E14QSharedPointerINS_9BitMatrixEE@Base 3.3.0
 _ZN5zxing6qrcode8DetectorD1Ev@Base 3.3.0
 _ZN5zxing6qrcode8DetectorD2Ev@Base 3.3.0
 _ZN5zxing6qrcode8ECBlocks11getECBlocksEv@Base 3.3.0
 _ZN5zxing6qrcode8ECBlocks19getTotalECCodewordsEv@Base 3.3.0
 _ZN5zxing6qrcode8ECBlocks21getECCodewordsPerBlocEv@Base 3.3.0
 _ZN5zxing6qrcode8ECBlocksC1EiPNS0_3ECBE@Base 3.3.0
 _ZN5zxing6qrcode8ECBlocksC1EiPNS0_3ECBES3_@Base 3.3.0
 _ZN5zxing6qrcode8ECBlocksC2EiPNS0_3ECBE@Base 3.3.0
 _ZN5zxing6qrcode8ECBlocksC2EiPNS0_3ECBES3_@Base 3.3.0
 _ZN5zxing6qrcode8ECBlocksD1Ev@Base 3.3.0
 _ZN5zxing6qrcode8ECBlocksD2Ev@Base 3.3.0
 _ZN5zxing6qrcode8MaskUtil14getDataMaskBitEiii@Base 3.3.0
 _ZN5zxing6qrcode8MaskUtil15isWhiteVerticalERKSt6vectorIS2_IhSaIhEESaIS4_EEiii@Base 3.3.0
 _ZN5zxing6qrcode8MaskUtil17isWhiteHorizontalERKSt6vectorIhSaIhEEii@Base 3.3.0
 _ZN5zxing6qrcode8MaskUtil21applyMaskPenaltyRule1ERKNS0_10ByteMatrixE@Base 3.3.0
 _ZN5zxing6qrcode8MaskUtil21applyMaskPenaltyRule2ERKNS0_10ByteMatrixE@Base 3.3.0
 _ZN5zxing6qrcode8MaskUtil21applyMaskPenaltyRule3ERKNS0_10ByteMatrixE@Base 3.3.0
 _ZN5zxing6qrcode8MaskUtil21applyMaskPenaltyRule4ERKNS0_10ByteMatrixE@Base 3.3.0
 _ZN5zxing6qrcode8MaskUtil29applyMaskPenaltyRule1InternalERKNS0_10ByteMatrixEb@Base 3.3.0
 _ZN5zxing6qrcode8MaskUtil2N1E@Base 3.3.0
 _ZN5zxing6qrcode8MaskUtil2N2E@Base 3.3.0
 _ZN5zxing6qrcode8MaskUtil2N3E@Base 3.3.0
 _ZN5zxing6qrcode8MaskUtil2N4E@Base 3.3.0
 _ZN5zxing6qrcode9BlockPairD1Ev@Base 3.3.0
 _ZN5zxing6qrcode9BlockPairD2Ev@Base 3.3.0
 _ZN5zxing6qrcode9DataBlock12getCodewordsEv@Base 3.3.0
 _ZN5zxing6qrcode9DataBlock13getDataBlocksE14QSharedPointerISt6vectorIhSaIhEEES2_INS0_7VersionEERNS0_20ErrorCorrectionLevelE@Base 3.3.0
 _ZN5zxing6qrcode9DataBlock19getNumDataCodewordsEv@Base 3.3.0
 _ZN5zxing6qrcode9DataBlockC1Ei14QSharedPointerISt6vectorIhSaIhEEE@Base 3.3.0
 _ZN5zxing6qrcode9DataBlockC2Ei14QSharedPointerISt6vectorIhSaIhEEE@Base 3.3.0
 _ZN5zxing6qrcodeeqERKNS0_17FormatInformationES3_@Base 3.3.0
 _ZN5zxing6qrcodelsERSoRKNS0_17FormatInformationE@Base 3.3.0
 _ZN5zxing8BitArray10appendBitsEii@Base 3.3.0
 _ZN5zxing8BitArray10getNextSetEi@Base 3.3.0
 _ZN5zxing8BitArray11getBitArrayEv@Base 3.3.0
 _ZN5zxing8BitArray12getNextUnsetEi@Base 3.3.0
 _ZN5zxing8BitArray13makeArraySizeEi@Base 3.3.0
 _ZN5zxing8BitArray14appendBitArrayERKS0_@Base 3.3.0
 _ZN5zxing8BitArray14ensureCapacityEi@Base 3.3.0
 _ZN5zxing8BitArray4xor_ERKS0_@Base 3.3.0
 _ZN5zxing8BitArray5clearEv@Base 3.3.0
 _ZN5zxing8BitArray7ReverseC1E14QSharedPointerIS0_E@Base 3.3.0
 _ZN5zxing8BitArray7ReverseC2E14QSharedPointerIS0_E@Base 3.3.0
 _ZN5zxing8BitArray7ReverseD1Ev@Base 3.3.0
 _ZN5zxing8BitArray7ReverseD2Ev@Base 3.3.0
 _ZN5zxing8BitArray7isRangeEiib@Base 3.3.0
 _ZN5zxing8BitArray7reverseEv@Base 3.3.0
 _ZN5zxing8BitArray7setBulkEii@Base 3.3.0
 _ZN5zxing8BitArray9appendBitEb@Base 3.3.0
 _ZN5zxing8BitArrayC1ESt6vectorIiSaIiEE@Base 3.3.0
 _ZN5zxing8BitArrayC1Ei@Base 3.3.0
 _ZN5zxing8BitArrayC1Ev@Base 3.3.0
 _ZN5zxing8BitArrayC2ESt6vectorIiSaIiEE@Base 3.3.0
 _ZN5zxing8BitArrayC2Ei@Base 3.3.0
 _ZN5zxing8BitArrayC2Ev@Base 3.3.0
 _ZN5zxing8BitArrayD1Ev@Base 3.3.0
 _ZN5zxing8BitArrayD2Ev@Base 3.3.0
 _ZN5zxing9BinarizerC1E14QSharedPointerINS_15LuminanceSourceEE@Base 3.3.0
 _ZN5zxing9BinarizerC2E14QSharedPointerINS_15LuminanceSourceEE@Base 3.3.0
 _ZN5zxing9BinarizerD0Ev@Base 3.3.0
 _ZN5zxing9BinarizerD1Ev@Base 3.3.0
 _ZN5zxing9BinarizerD2Ev@Base 3.3.0
 _ZN5zxing9BitMatrix4flipEii@Base 3.3.0
 _ZN5zxing9BitMatrix4initEii@Base 3.3.0
 _ZN5zxing9BitMatrix6getRowEi14QSharedPointerINS_8BitArrayEE@Base 3.3.0
 _ZN5zxing9BitMatrix6setRowEi14QSharedPointerINS_8BitArrayEE@Base 3.3.0
 _ZN5zxing9BitMatrix9rotate180Ev@Base 3.3.0
 _ZN5zxing9BitMatrix9setRegionEiiii@Base 3.3.0
 _ZN5zxing9BitMatrixC1Ei@Base 3.3.0
 _ZN5zxing9BitMatrixC1Eii@Base 3.3.0
 _ZN5zxing9BitMatrixC2Ei@Base 3.3.0
 _ZN5zxing9BitMatrixC2Eii@Base 3.3.0
 _ZN5zxing9BitMatrixD1Ev@Base 3.3.0
 _ZN5zxing9BitMatrixD2Ev@Base 3.3.0
 _ZN5zxing9BitSource8readBitsEi@Base 3.3.0
 _ZN5zxing9BitSource9availableEv@Base 3.3.0
 _ZN5zxing9Exception13deleteMessageEv@Base 3.3.0
 _ZN5zxing9Exception4copyEPKc@Base 3.3.0
 _ZN5zxing9ExceptionC1EPKc@Base 3.3.0
 _ZN5zxing9ExceptionC1ERKS0_@Base 3.3.0
 _ZN5zxing9ExceptionC1Ev@Base 3.3.0
 _ZN5zxing9ExceptionC2EPKc@Base 3.3.0
 _ZN5zxing9ExceptionC2ERKS0_@Base 3.3.0
 _ZN5zxing9ExceptionC2Ev@Base 3.3.0
 _ZN5zxing9ExceptionD0Ev@Base 3.3.0
 _ZN5zxing9ExceptionD1Ev@Base 3.3.0
 _ZN5zxing9ExceptionD2Ev@Base 3.3.0
 _ZN5zxing9GenericGF10initializeEv@Base 3.3.0
 _ZN5zxing9GenericGF11AZTEC_PARAME@Base 3.3.0
 _ZN5zxing9GenericGF12AZTEC_DATA_6E@Base 3.3.0
 _ZN5zxing9GenericGF12AZTEC_DATA_8E@Base 3.3.0
 _ZN5zxing9GenericGF13AZTEC_DATA_10E@Base 3.3.0
 _ZN5zxing9GenericGF13AZTEC_DATA_12E@Base 3.3.0
 _ZN5zxing9GenericGF13addOrSubtractEii@Base 3.3.0
 _ZN5zxing9GenericGF13buildMonomialEii@Base 3.3.0
 _ZN5zxing9GenericGF16getGeneratorBaseEv@Base 3.3.0
 _ZN5zxing9GenericGF17MAXICODE_FIELD_64E@Base 3.3.0
 _ZN5zxing9GenericGF17QR_CODE_FIELD_256E@Base 3.3.0
 _ZN5zxing9GenericGF21DATA_MATRIX_FIELD_256E@Base 3.3.0
 _ZN5zxing9GenericGF3expEi@Base 3.3.0
 _ZN5zxing9GenericGF3logEi@Base 3.3.0
 _ZN5zxing9GenericGF6getOneEv@Base 3.3.0
 _ZN5zxing9GenericGF7getSizeEv@Base 3.3.0
 _ZN5zxing9GenericGF7getZeroEv@Base 3.3.0
 _ZN5zxing9GenericGF7inverseEi@Base 3.3.0
 _ZN5zxing9GenericGF8multiplyEii@Base 3.3.0
 _ZN5zxing9GenericGF9checkInitEv@Base 3.3.0
 (subst)_ZN5zxing9GenericGFC1Ei{size_t}i@Base 3.3.0
 (subst)_ZN5zxing9GenericGFC2Ei{size_t}i@Base 3.3.0
 _ZN5zxing9GenericGFD1Ev@Base 3.3.0
 _ZN5zxing9GenericGFD2Ev@Base 3.3.0
 _ZN5zxinganERKNS_11DecodeHintsES2_@Base 3.3.0
 _ZN5zxinglsERSoRKNS_20PerspectiveTransformE@Base 3.3.0
 _ZN5zxinglsERSoRKNS_6StringE@Base 3.3.0
 _ZN5zxinglsERSoRKNS_8BitArrayE@Base 3.3.0
 _ZN5zxinglsERSoRNS_6ResultE@Base 3.3.0
 _ZN5zxingorERKNS_11DecodeHintsES2_@Base 3.3.0
 _ZN6QZXing10encodeDataERK7QStringNS_13EncoderFormatE5QSizeNS_26EncodeErrorCorrectionLevelEbb@Base 3.3.0
 _ZN6QZXing10encodeDataERK7QStringRK19QZXingEncoderConfig@Base 3.3.0
 _ZN6QZXing10setDecoderERKj@Base 3.3.0
 _ZN6QZXing11decodeImageERK6QImageiib@Base 3.3.0
 _ZN6QZXing11qt_metacallEN11QMetaObject4CallEiPPv@Base 3.3.0
 _ZN6QZXing11qt_metacastEPKc@Base 3.3.0
 _ZN6QZXing12getTryHarderEv@Base 3.3.0
 _ZN6QZXing12setTryHarderEb@Base 3.3.0
 _ZN6QZXing13metadataToMapERKN5zxing14ResultMetadataE@Base 3.3.0
 _ZN6QZXing14decodeImageQMLEP7QObject@Base 3.3.0
 _ZN6QZXing14decodeImageQMLERK4QUrl@Base 3.3.0
 _ZN6QZXing15decodingStartedEv@Base 3.3.0
 _ZN6QZXing16decodingFinishedEb@Base 3.3.0
 _ZN6QZXing16registerQMLTypesEv@Base 3.3.0
 _ZN6QZXing16staticMetaObjectE@Base 3.3.0
 _ZN6QZXing17decodeSubImageQMLEP7QObjectiiii@Base 3.3.0
 _ZN6QZXing17decodeSubImageQMLERK4QUrliiii@Base 3.3.0
 _ZN6QZXing19decodeImageFromFileERK7QStringiib@Base 3.3.0
 _ZN6QZXing19getSourceFilterTypeEv@Base 3.3.0
 _ZN6QZXing19setSourceFilterTypeEj@Base 3.3.0
 _ZN6QZXing20getAllowedExtensionsEv@Base 3.3.0
 _ZN6QZXing20setAllowedExtensionsERK5QListI8QVariantE@Base 3.3.0
 _ZN6QZXing21decoderFormatToStringEi@Base 3.3.0
 _ZN6QZXing21enabledFormatsChangedEv@Base 3.3.0
 _ZN6QZXing21getTryHarderBehaviourEv@Base 3.3.0
 _ZN6QZXing21setTryHarderBehaviourEj@Base 3.3.0
 _ZN6QZXing24registerQMLImageProviderER10QQmlEngine@Base 3.3.0
 _ZN6QZXing28getProcessTimeOfLastDecodingEv@Base 3.3.0
 _ZN6QZXing30getLastDecodeOperationSuccededEv@Base 3.3.0
 _ZN6QZXing5errorE7QString@Base 3.3.0
 _ZN6QZXing8tagFoundE7QString@Base 3.3.0
 _ZN6QZXingC1ENS_13DecoderFormatEP7QObject@Base 3.3.0
 _ZN6QZXingC1EP7QObject@Base 3.3.0
 _ZN6QZXingC2ENS_13DecoderFormatEP7QObject@Base 3.3.0
 _ZN6QZXingC2EP7QObject@Base 3.3.0
 _ZN6QZXingD0Ev@Base 3.3.0
 _ZN6QZXingD1Ev@Base 3.3.0
 _ZN6QZXingD2Ev@Base 3.3.0
 _ZN7QStringD1Ev@Base 3.3.0
 _ZN7QStringD2Ev@Base 3.3.0
 (optional=templinst)_ZN8QMapNodeI7QString8QVariantE14destroySubTreeEv@Base 3.3.0
 (optional=templinst)_ZN9QtPrivate11QSlotObjectIM12ImageHandlerFvvENS_4ListIJEEEvE4implEiPNS_15QSlotObjectBaseEP7QObjectPPvPb@Base 3.3.0
 (optional=templinst)_ZN9QtPrivate11QSlotObjectIM12QZXingFilterFvbENS_4ListIJbEEEvE4implEiPNS_15QSlotObjectBaseEP7QObjectPPvPb@Base 3.3.0
 (optional=templinst)_ZN9QtPrivate11QSlotObjectIM12QZXingFilterFvvENS_4ListIJEEEvE4implEiPNS_15QSlotObjectBaseEP7QObjectPPvPb@Base 3.3.0
 _ZNK10BigInteger13toUnsignedIntEv@Base 3.3.0
 _ZNK10BigInteger14toUnsignedLongEv@Base 3.3.0
 _ZNK10BigInteger15toUnsignedShortEv@Base 3.3.0
 _ZNK10BigInteger5toIntEv@Base 3.3.0
 _ZNK10BigInteger6toLongEv@Base 3.3.0
 _ZNK10BigInteger7toShortEv@Base 3.3.0
 _ZNK10BigInteger9compareToERKS_@Base 3.3.0
 _ZNK11BigUnsigned13toUnsignedIntEv@Base 3.3.0
 _ZNK11BigUnsigned14toUnsignedLongEv@Base 3.3.0
 _ZNK11BigUnsigned15toUnsignedShortEv@Base 3.3.0
 _ZNK11BigUnsigned5toIntEv@Base 3.3.0
 _ZNK11BigUnsigned6toLongEv@Base 3.3.0
 _ZNK11BigUnsigned7toShortEv@Base 3.3.0
 _ZNK11BigUnsigned9bitLengthEv@Base 3.3.0
 _ZNK11BigUnsigned9compareToERKS_@Base 3.3.0
 _ZNK12ImageHandler10metaObjectEv@Base 3.3.0
 _ZNK12QZXingFilter10metaObjectEv@Base 3.3.0
 _ZNK12QZXingFilter11orientationEv@Base 3.3.0
 (optional=templinst)_ZNK14QSharedPointerIN5zxing11ResultPointEE3refEv@Base 3.3.0
 (optional=templinst)_ZNK14QSharedPointerIN5zxing12BinaryBitmapEE3refEv@Base 3.3.0
 (optional=templinst)_ZNK14QSharedPointerIN5zxing9GenericGFEE3refEv@Base 3.3.0
 _ZNK18BigUnsignedInABasecv11BigUnsignedEv@Base 3.3.0
 (optional=templinst)_ZNK18BigUnsignedInABasecvNSt7__cxx1112basic_stringIcSt11char_traitsIcESaIcEEEEv@Base 3.3.0
 _ZNK18CameraImageWrapper10getMatrixPEv@Base 3.3.0
 _ZNK18CameraImageWrapper15isCropSupportedEv@Base 3.3.0
 _ZNK18CameraImageWrapper17isRotateSupportedEv@Base 3.3.0
 _ZNK18CameraImageWrapper22rotateCounterClockwiseEv@Base 3.3.0
 _ZNK18CameraImageWrapper4cropEiiii@Base 3.3.0
 _ZNK18CameraImageWrapper6getRowEi14QSharedPointerISt6vectorIhSaIhEEE@Base 3.3.0
 _ZNK18CameraImageWrapper6invertEv@Base 3.3.0
 _ZNK18CameraImageWrapper7getRowPEi14QSharedPointerISt6vectorIhSaIhEEE@Base 3.3.0
 _ZNK18CameraImageWrapper9getMatrixEv@Base 3.3.0
 _ZNK20QZXingFilterRunnable10metaObjectEv@Base 3.3.0
 (optional=templinst|arch=amd64 ppc64 riscv64 s390x)_ZNK5QHashIP7QObject15QHashDummyValueE8findNodeERKS1_Pj@Base 3.3.0
 _ZNK5zxing10datamatrix11CornerPoint6equalsE14QSharedPointerIS1_E@Base 3.3.0
 _ZNK5zxing10datamatrix11CornerPoint8getCountEv@Base 3.3.0
 _ZNK5zxing10datamatrix7Version11getECBlocksEv@Base 3.3.0
 _ZNK5zxing10datamatrix7Version16getVersionNumberEv@Base 3.3.0
 _ZNK5zxing10datamatrix7Version17getSymbolSizeRowsEv@Base 3.3.0
 _ZNK5zxing10datamatrix7Version17getTotalCodewordsEv@Base 3.3.0
 _ZNK5zxing10datamatrix7Version20getSymbolSizeColumnsEv@Base 3.3.0
 _ZNK5zxing10datamatrix7Version21getDataRegionSizeRowsEv@Base 3.3.0
 _ZNK5zxing10datamatrix7Version24getDataRegionSizeColumnsEv@Base 3.3.0
 _ZNK5zxing11DecodeHints12getTryHarderEv@Base 3.3.0
 _ZNK5zxing11DecodeHints14containsFormatENS_13BarcodeFormatE@Base 3.3.0
 _ZNK5zxing11DecodeHints22getResultPointCallbackEv@Base 3.3.0
 _ZNK5zxing11DecodeHints23getAllowedEanExtensionsEv@Base 3.3.0
 _ZNK5zxing11ResultPoint4getXEv@Base 3.3.0
 _ZNK5zxing11ResultPoint4getYEv@Base 3.3.0
 _ZNK5zxing12BinaryBitmap15isCropSupportedEv@Base 3.3.0
 _ZNK5zxing12BinaryBitmap17isRotateSupportedEv@Base 3.3.0
 _ZNK5zxing12BinaryBitmap18getLuminanceSourceEv@Base 3.3.0
 _ZNK5zxing12BinaryBitmap8getWidthEv@Base 3.3.0
 _ZNK5zxing12BinaryBitmap9getHeightEv@Base 3.3.0
 _ZNK5zxing14ResultMetadata11StringValue8toStringB5cxx11Ev@Base 3.3.0
 _ZNK5zxing14ResultMetadata11keyToStringB5cxx11ENS0_3KeyE@Base 3.3.0
 _ZNK5zxing14ResultMetadata12IntegerValue9toIntegerEi@Base 3.3.0
 _ZNK5zxing14ResultMetadata4keysB5cxx11Ev@Base 3.3.0
 _ZNK5zxing14ResultMetadata5Value8toStringB5cxx11Ev@Base 3.3.0
 _ZNK5zxing14ResultMetadata5Value9toIntegerEi@Base 3.3.0
 _ZNK5zxing14ResultMetadata5emptyEv@Base 3.3.0
 _ZNK5zxing14ResultMetadata6getIntENS0_3KeyEi@Base 3.3.0
 _ZNK5zxing14ResultMetadata9getStringB5cxx11ENS0_3KeyE@Base 3.3.0
 _ZNK5zxing15LuminanceSource15isCropSupportedEv@Base 3.3.0
 _ZNK5zxing15LuminanceSource17isRotateSupportedEv@Base 3.3.0
 _ZNK5zxing15LuminanceSource22rotateCounterClockwiseEv@Base 3.3.0
 _ZNK5zxing15LuminanceSource24rotateCounterClockwise45Ev@Base 3.3.0
 _ZNK5zxing15LuminanceSource4cropEiiii@Base 3.3.0
 _ZNK5zxing15LuminanceSource6invertEv@Base 3.3.0
 (optional=templinst)_ZNK5zxing15LuminanceSourcecvNSt7__cxx1112basic_stringIcSt11char_traitsIcESaIcEEEEv@Base 3.3.0
 _ZNK5zxing23InvertedLuminanceSource15isCropSupportedEv@Base 3.3.0
 _ZNK5zxing23InvertedLuminanceSource17isRotateSupportedEv@Base 3.3.0
 _ZNK5zxing23InvertedLuminanceSource22rotateCounterClockwiseEv@Base 3.3.0
 _ZNK5zxing23InvertedLuminanceSource4cropEiiii@Base 3.3.0
 _ZNK5zxing23InvertedLuminanceSource6getRowEi14QSharedPointerISt6vectorIhSaIhEEE@Base 3.3.0
 _ZNK5zxing23InvertedLuminanceSource6invertEv@Base 3.3.0
 _ZNK5zxing23InvertedLuminanceSource9getMatrixEv@Base 3.3.0
 _ZNK5zxing24GreyscaleLuminanceSource17isRotateSupportedEv@Base 3.3.0
 _ZNK5zxing24GreyscaleLuminanceSource22rotateCounterClockwiseEv@Base 3.3.0
 _ZNK5zxing24GreyscaleLuminanceSource6getRowEi14QSharedPointerISt6vectorIhSaIhEEE@Base 3.3.0
 _ZNK5zxing24GreyscaleLuminanceSource9getMatrixEv@Base 3.3.0
 _ZNK5zxing31GreyscaleRotatedLuminanceSource6getRowEi14QSharedPointerISt6vectorIhSaIhEEE@Base 3.3.0
 _ZNK5zxing31GreyscaleRotatedLuminanceSource9getMatrixEv@Base 3.3.0
 _ZNK5zxing4oned3rss11DecodedChar6isFNC1Ev@Base 3.3.0
 _ZNK5zxing4oned3rss11DecodedChar8getValueEv@Base 3.3.0
 _ZNK5zxing4oned3rss11ExpandedRow12isEquivalentESt6vectorINS1_12ExpandedPairESaIS4_EE@Base 3.3.0
 _ZNK5zxing4oned3rss11ExpandedRow6equalsERKS2_@Base 3.3.0
 _ZNK5zxing4oned3rss11RSS14Reader15constructResultENS1_4PairES3_@Base 3.3.0
 _ZNK5zxing4oned3rss12ExpandedPair10mustBeLastEv@Base 3.3.0
 _ZNK5zxing4oned3rss12ExpandedPair6equalsERKS2_@Base 3.3.0
 _ZNK5zxing4oned3rss12ExpandedPair8hashCodeEv@Base 3.3.0
 _ZNK5zxing4oned3rss12ExpandedPair8toStringEv@Base 3.3.0
 _ZNK5zxing4oned3rss13DataCharacter18getChecksumPortionEv@Base 3.3.0
 _ZNK5zxing4oned3rss13DataCharacter6equalsERKS2_@Base 3.3.0
 _ZNK5zxing4oned3rss13DataCharacter8getValueEv@Base 3.3.0
 _ZNK5zxing4oned3rss13DataCharacter8hashCodeEv@Base 3.3.0
 _ZNK5zxing4oned3rss13DataCharacter8toStringEv@Base 3.3.0
 _ZNK5zxing4oned3rss13DecodedObject14getNewPositionEv@Base 3.3.0
 _ZNK5zxing4oned3rss13FinderPattern6equalsERKS2_@Base 3.3.0
 _ZNK5zxing4oned3rss13FinderPattern7isValidEv@Base 3.3.0
 _ZNK5zxing4oned3rss13FinderPattern8getValueEv@Base 3.3.0
 _ZNK5zxing4oned3rss13FinderPattern8hashCodeEv@Base 3.3.0
 _ZNK5zxing4oned3rss14DecodedNumeric13getFirstDigitEv@Base 3.3.0
 _ZNK5zxing4oned3rss14DecodedNumeric14getSecondDigitEv@Base 3.3.0
 _ZNK5zxing4oned3rss14DecodedNumeric16isFirstDigitFNC1Ev@Base 3.3.0
 _ZNK5zxing4oned3rss14DecodedNumeric17isSecondDigitFNC1Ev@Base 3.3.0
 _ZNK5zxing4oned3rss14DecodedNumeric8getValueEv@Base 3.3.0
 _ZNK5zxing4oned3rss17RSSExpandedReader7getRowsEv@Base 3.3.0
 _ZNK5zxing4oned3rss18DecodedInformation11isRemainingEv@Base 3.3.0
 _ZNK5zxing4oned3rss18DecodedInformation12getNewStringEv@Base 3.3.0
 _ZNK5zxing4oned3rss18DecodedInformation17getRemainingValueEv@Base 3.3.0
 _ZNK5zxing4oned3rss19CurrentParsingState11getPositionEv@Base 3.3.0
 _ZNK5zxing4oned3rss19CurrentParsingState11isIsoIec646Ev@Base 3.3.0
 _ZNK5zxing4oned3rss19CurrentParsingState7isAlphaEv@Base 3.3.0
 _ZNK5zxing4oned3rss19CurrentParsingState9isNumericEv@Base 3.3.0
 _ZNK5zxing4oned3rss19GeneralAppIdDecoder14isStillNumericEi@Base 3.3.0
 _ZNK5zxing4oned3rss23AbstractExpandedDecoder14getInformationEv@Base 3.3.0
 _ZNK5zxing4oned3rss4Pair7isValidEv@Base 3.3.0
 _ZNK5zxing4oned3rss4Pair8getCountEv@Base 3.3.0
 _ZNK5zxing6Result10getCharSetB5cxx11Ev@Base 3.3.0
 _ZNK5zxing6Result15getResultPointsEv@Base 3.3.0
 _ZNK5zxing6Result16getBarcodeFormatEv@Base 3.3.0
 _ZNK5zxing6String4sizeEv@Base 3.3.0
 _ZNK5zxing6String6charAtEi@Base 3.3.0
 _ZNK5zxing6String6lengthEv@Base 3.3.0
 _ZNK5zxing6String7getTextB5cxx11Ev@Base 3.3.0
 _ZNK5zxing6String9substringEii@Base 3.3.0
 _ZNK5zxing6common15CharacterSetECI4nameEv@Base 3.3.0
 _ZNK5zxing6common15CharacterSetECI8getValueEv@Base 3.3.0
 (subst)_ZNK5zxing6qrcode10ByteMatrix3getE{size_t}{size_t}@Base 3.3.0
 _ZNK5zxing6qrcode10ByteMatrix8getArrayEv@Base 3.3.0
 _ZNK5zxing6qrcode10ByteMatrix8getWidthEv@Base 3.3.0
 _ZNK5zxing6qrcode10ByteMatrix8toStringB5cxx11Ev@Base 3.3.0
 _ZNK5zxing6qrcode10ByteMatrix9getHeightEv@Base 3.3.0
 _ZNK5zxing6qrcode13FinderPattern11aboutEqualsEfff@Base 3.3.0
 _ZNK5zxing6qrcode13FinderPattern15combineEstimateEfff@Base 3.3.0
 _ZNK5zxing6qrcode13FinderPattern22getEstimatedModuleSizeEv@Base 3.3.0
 _ZNK5zxing6qrcode13FinderPattern8getCountEv@Base 3.3.0
 _ZNK5zxing6qrcode16AlignmentPattern11aboutEqualsEfff@Base 3.3.0
 _ZNK5zxing6qrcode16AlignmentPattern15combineEstimateEfff@Base 3.3.0
 _ZNK5zxing6qrcode19FinderPatternFinder18crossCheckDiagonalEiiii@Base 3.3.0
 _ZNK5zxing6qrcode19FinderPatternFinder23getCrossCheckStateCountEv@Base 3.3.0
 _ZNK5zxing6qrcode20ErrorCorrectionLevel4bitsEv@Base 3.3.0
 _ZNK5zxing6qrcode20ErrorCorrectionLevel4nameB5cxx11Ev@Base 3.3.0
 _ZNK5zxing6qrcode20ErrorCorrectionLevel7ordinalEv@Base 3.3.0
 (optional=templinst)_ZNK5zxing6qrcode20ErrorCorrectionLevelcvRKNSt7__cxx1112basic_stringIcSt11char_traitsIcESaIcEEEEv@Base 3.3.0
 _ZNK5zxing6qrcode4Mode21getCharacterCountBitsE14QSharedPointerINS0_7VersionEE@Base 3.3.0
 _ZNK5zxing6qrcode6QRCode10getECLevelEv@Base 3.3.0
 _ZNK5zxing6qrcode6QRCode10getVersionEv@Base 3.3.0
 _ZNK5zxing6qrcode6QRCode14getMaskPatternEv@Base 3.3.0
 _ZNK5zxing6qrcode6QRCode7getModeEv@Base 3.3.0
 _ZNK5zxing6qrcode6QRCode8toStringB5cxx11Ev@Base 3.3.0
 _ZNK5zxing6qrcode6QRCode9getMatrixEv@Base 3.3.0
 _ZNK5zxing6qrcode7Version16getVersionNumberEv@Base 3.3.0
 _ZNK5zxing6qrcode7Version19getECBlocksForLevelERKNS0_20ErrorCorrectionLevelE@Base 3.3.0
 _ZNK5zxing6qrcode8Detector22getResultPointCallbackEv@Base 3.3.0
 _ZNK5zxing6qrcode8Detector8getImageEv@Base 3.3.0
 _ZNK5zxing6qrcode8ECBlocks9numBlocksEv@Base 3.3.0
 _ZNK5zxing8BitArray14getSizeInBytesEv@Base 3.3.0
 _ZNK5zxing8BitArray7getSizeEv@Base 3.3.0
 _ZNK5zxing8BitArray7toBytesEiRSt6vectorIhSaIhEEii@Base 3.3.0
 _ZNK5zxing8BitArray8toStringB5cxx11Ev@Base 3.3.0
 _ZNK5zxing9Binarizer18getLuminanceSourceEv@Base 3.3.0
 _ZNK5zxing9Binarizer8getWidthEv@Base 3.3.0
 _ZNK5zxing9Binarizer9getHeightEv@Base 3.3.0
 _ZNK5zxing9BitMatrix15getTopLeftOnBitEv@Base 3.3.0
 _ZNK5zxing9BitMatrix19getBottomRightOnBitEv@Base 3.3.0
 _ZNK5zxing9BitMatrix21getEnclosingRectangleEv@Base 3.3.0
 _ZNK5zxing9BitMatrix8getWidthEv@Base 3.3.0
 _ZNK5zxing9BitMatrix9getHeightEv@Base 3.3.0
 _ZNK5zxing9Exception4whatEv@Base 3.3.0
 _ZNK6QZXing10metaObjectEv@Base 3.3.0
 _ZNK6QZXing13foundedFormatEv@Base 3.3.0
 _ZNK6QZXing16tagFoundAdvancedERK7QStringS2_S2_@Base 3.3.0
 _ZNK6QZXing16tagFoundAdvancedERK7QStringS2_S2_RK4QMapIS0_8QVariantE@Base 3.3.0
 _ZNK6QZXing16tagFoundAdvancedERK7QStringS2_S2_RK6QRectF@Base 3.3.0
 _ZNK6QZXing17getEnabledFormatsEv@Base 3.3.0
 _ZNK6QZXing7charSetEv@Base 3.3.0
 (optional=templinst)_ZNK8QMapNodeI7QString8QVariantE4copyEP8QMapDataIS0_S1_E@Base 3.3.0
 (optional=templinst)_ZNKSt5ctypeIcE8do_widenEc@Base 3.3.0
 (optional=templinst)_ZNSt12_Vector_baseIN5zxing4oned3rss11ExpandedRowESaIS3_EED1Ev@Base 3.3.0
 (optional=templinst)_ZNSt12_Vector_baseIN5zxing4oned3rss11ExpandedRowESaIS3_EED2Ev@Base 3.3.0
 (optional=templinst)_ZNSt12_Vector_baseIN5zxing4oned3rss4PairESaIS3_EED1Ev@Base 3.3.0
 (optional=templinst)_ZNSt12_Vector_baseIN5zxing4oned3rss4PairESaIS3_EED2Ev@Base 3.3.0
 (optional=templinst)_ZNSt12_Vector_baseIPKcSaIS1_EED1Ev@Base 3.3.0
 (optional=templinst)_ZNSt12_Vector_baseIPKcSaIS1_EED2Ev@Base 3.3.0
 (optional=templinst)_ZNSt12_Vector_baseIPN5zxing6qrcode3ECBESaIS3_EED1Ev@Base 3.3.0
 (optional=templinst)_ZNSt12_Vector_baseIPN5zxing6qrcode3ECBESaIS3_EED2Ev@Base 3.3.0
 (optional=templinst)_ZNSt12_Vector_baseIfSaIfEED1Ev@Base 3.3.0
 (optional=templinst)_ZNSt12_Vector_baseIfSaIfEED2Ev@Base 3.3.0
 (optional=templinst)_ZNSt12_Vector_baseIhSaIhEED1Ev@Base 3.3.0
 (optional=templinst)_ZNSt12_Vector_baseIhSaIhEED2Ev@Base 3.3.0
 (optional=templinst)_ZNSt12_Vector_baseIiSaIiEED1Ev@Base 3.3.0
 (optional=templinst)_ZNSt12_Vector_baseIiSaIiEED2Ev@Base 3.3.0
 (optional=templinst)_ZNSt13_Bvector_baseISaIbEE13_M_deallocateEv@Base 3.3.0
 (optional=templinst|arch=armel riscv64)_ZNSt15_Sp_counted_ptrIDnLN9__gnu_cxx12_Lock_policyE1EE10_M_disposeEv@Base 3.3.0
 (optional=templinst|arch=!armel !riscv64)_ZNSt15_Sp_counted_ptrIDnLN9__gnu_cxx12_Lock_policyE2EE10_M_disposeEv@Base 3.3.0
 (optional=templinst|arch=armel riscv64)_ZNSt16_Sp_counted_baseILN9__gnu_cxx12_Lock_policyE1EE10_M_destroyEv@Base 3.3.0
 (optional=templinst|arch=armel riscv64)_ZNSt16_Sp_counted_baseILN9__gnu_cxx12_Lock_policyE1EE10_M_releaseEv@Base 3.3.0
 (optional=templinst|arch=!armel !riscv64)_ZNSt16_Sp_counted_baseILN9__gnu_cxx12_Lock_policyE2EE10_M_destroyEv@Base 3.3.0
 (optional=templinst|arch=!armel !riscv64)_ZNSt16_Sp_counted_baseILN9__gnu_cxx12_Lock_policyE2EE10_M_releaseEv@Base 3.3.0
 (optional=templinst|arch=amd64 ppc64 s390x)_ZNSt16_Sp_counted_baseILN9__gnu_cxx12_Lock_policyE2EE24_M_release_last_use_coldEv@Base 3.3.0
 (optional=templinst|arch=armel riscv64)_ZNSt23_Sp_counted_ptr_inplaceIN5zxing14ResultMetadata11StringValueESaIvELN9__gnu_cxx12_Lock_policyE1EE10_M_destroyEv@Base 3.3.0
 (optional=templinst|arch=armel riscv64)_ZNSt23_Sp_counted_ptr_inplaceIN5zxing14ResultMetadata11StringValueESaIvELN9__gnu_cxx12_Lock_policyE1EE10_M_disposeEv@Base 3.3.0
 (optional=templinst|arch=armel riscv64)_ZNSt23_Sp_counted_ptr_inplaceIN5zxing14ResultMetadata11StringValueESaIvELN9__gnu_cxx12_Lock_policyE1EE14_M_get_deleterERKSt9type_info@Base 3.3.0
 (optional=templinst|arch=armel riscv64)_ZNSt23_Sp_counted_ptr_inplaceIN5zxing14ResultMetadata11StringValueESaIvELN9__gnu_cxx12_Lock_policyE1EED0Ev@Base 3.3.0
 (optional=templinst|arch=armel riscv64)_ZNSt23_Sp_counted_ptr_inplaceIN5zxing14ResultMetadata11StringValueESaIvELN9__gnu_cxx12_Lock_policyE1EED1Ev@Base 3.3.0
 (optional=templinst|arch=armel riscv64)_ZNSt23_Sp_counted_ptr_inplaceIN5zxing14ResultMetadata11StringValueESaIvELN9__gnu_cxx12_Lock_policyE1EED2Ev@Base 3.3.0
 (optional=templinst|arch=!armel !riscv64)_ZNSt23_Sp_counted_ptr_inplaceIN5zxing14ResultMetadata11StringValueESaIvELN9__gnu_cxx12_Lock_policyE2EE10_M_destroyEv@Base 3.3.0
 (optional=templinst|arch=!armel !riscv64)_ZNSt23_Sp_counted_ptr_inplaceIN5zxing14ResultMetadata11StringValueESaIvELN9__gnu_cxx12_Lock_policyE2EE10_M_disposeEv@Base 3.3.0
 (optional=templinst|arch=!armel !riscv64)_ZNSt23_Sp_counted_ptr_inplaceIN5zxing14ResultMetadata11StringValueESaIvELN9__gnu_cxx12_Lock_policyE2EE14_M_get_deleterERKSt9type_info@Base 3.3.0
 (optional=templinst|arch=!armel !riscv64)_ZNSt23_Sp_counted_ptr_inplaceIN5zxing14ResultMetadata11StringValueESaIvELN9__gnu_cxx12_Lock_policyE2EED0Ev@Base 3.3.0
 (optional=templinst|arch=!armel !riscv64)_ZNSt23_Sp_counted_ptr_inplaceIN5zxing14ResultMetadata11StringValueESaIvELN9__gnu_cxx12_Lock_policyE2EED1Ev@Base 3.3.0
 (optional=templinst|arch=!armel !riscv64)_ZNSt23_Sp_counted_ptr_inplaceIN5zxing14ResultMetadata11StringValueESaIvELN9__gnu_cxx12_Lock_policyE2EED2Ev@Base 3.3.0
 (optional=templinst|arch=armel riscv64)_ZNSt23_Sp_counted_ptr_inplaceIN5zxing14ResultMetadata12IntegerValueESaIvELN9__gnu_cxx12_Lock_policyE1EE10_M_destroyEv@Base 3.3.0
 (optional=templinst|arch=armel riscv64)_ZNSt23_Sp_counted_ptr_inplaceIN5zxing14ResultMetadata12IntegerValueESaIvELN9__gnu_cxx12_Lock_policyE1EE10_M_disposeEv@Base 3.3.0
 (optional=templinst|arch=armel riscv64)_ZNSt23_Sp_counted_ptr_inplaceIN5zxing14ResultMetadata12IntegerValueESaIvELN9__gnu_cxx12_Lock_policyE1EE14_M_get_deleterERKSt9type_info@Base 3.3.0
 (optional=templinst|arch=armel riscv64)_ZNSt23_Sp_counted_ptr_inplaceIN5zxing14ResultMetadata12IntegerValueESaIvELN9__gnu_cxx12_Lock_policyE1EED0Ev@Base 3.3.0
 (optional=templinst|arch=armel riscv64)_ZNSt23_Sp_counted_ptr_inplaceIN5zxing14ResultMetadata12IntegerValueESaIvELN9__gnu_cxx12_Lock_policyE1EED1Ev@Base 3.3.0
 (optional=templinst|arch=armel riscv64)_ZNSt23_Sp_counted_ptr_inplaceIN5zxing14ResultMetadata12IntegerValueESaIvELN9__gnu_cxx12_Lock_policyE1EED2Ev@Base 3.3.0
 (optional=templinst|arch=!armel !riscv64)_ZNSt23_Sp_counted_ptr_inplaceIN5zxing14ResultMetadata12IntegerValueESaIvELN9__gnu_cxx12_Lock_policyE2EE10_M_destroyEv@Base 3.3.0
 (optional=templinst|arch=!armel !riscv64)_ZNSt23_Sp_counted_ptr_inplaceIN5zxing14ResultMetadata12IntegerValueESaIvELN9__gnu_cxx12_Lock_policyE2EE10_M_disposeEv@Base 3.3.0
 (optional=templinst|arch=!armel !riscv64)_ZNSt23_Sp_counted_ptr_inplaceIN5zxing14ResultMetadata12IntegerValueESaIvELN9__gnu_cxx12_Lock_policyE2EE14_M_get_deleterERKSt9type_info@Base 3.3.0
 (optional=templinst|arch=!armel !riscv64)_ZNSt23_Sp_counted_ptr_inplaceIN5zxing14ResultMetadata12IntegerValueESaIvELN9__gnu_cxx12_Lock_policyE2EED0Ev@Base 3.3.0
 (optional=templinst|arch=!armel !riscv64)_ZNSt23_Sp_counted_ptr_inplaceIN5zxing14ResultMetadata12IntegerValueESaIvELN9__gnu_cxx12_Lock_policyE2EED1Ev@Base 3.3.0
 (optional=templinst|arch=!armel !riscv64)_ZNSt23_Sp_counted_ptr_inplaceIN5zxing14ResultMetadata12IntegerValueESaIvELN9__gnu_cxx12_Lock_policyE2EED2Ev@Base 3.3.0
 (optional=templinst)_ZNSt3mapINSt7__cxx1112basic_stringIcSt11char_traitsIcESaIcEEEPN5zxing6common15CharacterSetECIESt4lessIS5_ESaISt4pairIKS5_S9_EEED1Ev@Base 3.3.0
 (optional=templinst)_ZNSt3mapINSt7__cxx1112basic_stringIcSt11char_traitsIcESaIcEEEPN5zxing6common15CharacterSetECIESt4lessIS5_ESaISt4pairIKS5_S9_EEED2Ev@Base 3.3.0
 (optional=templinst)_ZNSt3mapIiPN5zxing6common15CharacterSetECIESt4lessIiESaISt4pairIKiS3_EEED1Ev@Base 3.3.0
 (optional=templinst)_ZNSt3mapIiPN5zxing6common15CharacterSetECIESt4lessIiESaISt4pairIKiS3_EEED2Ev@Base 3.3.0
 (optional=templinst)_ZNSt6vectorI14QSharedPointerIN5zxing10datamatrix26ResultPointsAndTransitionsEESaIS4_EED1Ev@Base 3.3.0
 (optional=templinst)_ZNSt6vectorI14QSharedPointerIN5zxing10datamatrix26ResultPointsAndTransitionsEESaIS4_EED2Ev@Base 3.3.0
 (optional=templinst)_ZNSt6vectorI14QSharedPointerIN5zxing10datamatrix7VersionEESaIS4_EE17_M_realloc_insertIJS4_EEEvN9__gnu_cxx17__normal_iteratorIPS4_S6_EEDpOT_@Base 3.3.0
 (optional=templinst)_ZNSt6vectorI14QSharedPointerIN5zxing10datamatrix7VersionEESaIS4_EED1Ev@Base 3.3.0
 (optional=templinst)_ZNSt6vectorI14QSharedPointerIN5zxing10datamatrix7VersionEESaIS4_EED2Ev@Base 3.3.0
 (optional=templinst)_ZNSt6vectorI14QSharedPointerIN5zxing10datamatrix9DataBlockEESaIS4_EED1Ev@Base 3.3.0
 (optional=templinst)_ZNSt6vectorI14QSharedPointerIN5zxing10datamatrix9DataBlockEESaIS4_EED2Ev@Base 3.3.0
 (optional=templinst)_ZNSt6vectorI14QSharedPointerIN5zxing11ResultPointEESaIS3_EE17_M_realloc_insertIJRKS3_EEEvN9__gnu_cxx17__normal_iteratorIPS3_S5_EEDpOT_@Base 3.3.0
 (optional=templinst)_ZNSt6vectorI14QSharedPointerIN5zxing11ResultPointEESaIS3_EE17_M_realloc_insertIJS3_EEEvN9__gnu_cxx17__normal_iteratorIPS3_S5_EEDpOT_@Base 3.3.0
 (optional=templinst)_ZNSt6vectorI14QSharedPointerIN5zxing11ResultPointEESaIS3_EED1Ev@Base 3.3.0
 (optional=templinst)_ZNSt6vectorI14QSharedPointerIN5zxing11ResultPointEESaIS3_EED2Ev@Base 3.3.0
 (optional=templinst)_ZNSt6vectorI14QSharedPointerIN5zxing13GenericGFPolyEESaIS3_EE17_M_realloc_insertIJRKS3_EEEvN9__gnu_cxx17__normal_iteratorIPS3_S5_EEDpOT_@Base 3.3.0
 (optional=templinst)_ZNSt6vectorI14QSharedPointerIN5zxing13GenericGFPolyEESaIS3_EED1Ev@Base 3.3.0
 (optional=templinst)_ZNSt6vectorI14QSharedPointerIN5zxing13GenericGFPolyEESaIS3_EED2Ev@Base 3.3.0
 (optional=templinst)_ZNSt6vectorI14QSharedPointerIN5zxing14DetectorResultEESaIS3_EE17_M_realloc_insertIJS3_EEEvN9__gnu_cxx17__normal_iteratorIPS3_S5_EEDpOT_@Base 3.3.0
 (optional=templinst)_ZNSt6vectorI14QSharedPointerIN5zxing14DetectorResultEESaIS3_EED1Ev@Base 3.3.0
 (optional=templinst)_ZNSt6vectorI14QSharedPointerIN5zxing14DetectorResultEESaIS3_EED2Ev@Base 3.3.0
 (optional=templinst)_ZNSt6vectorI14QSharedPointerIN5zxing4oned10OneDReaderEESaIS4_EE17_M_realloc_insertIJS4_EEEvN9__gnu_cxx17__normal_iteratorIPS4_S6_EEDpOT_@Base 3.3.0
 (optional=templinst)_ZNSt6vectorI14QSharedPointerIN5zxing4oned10OneDReaderEESaIS4_EED1Ev@Base 3.3.0
 (optional=templinst)_ZNSt6vectorI14QSharedPointerIN5zxing4oned10OneDReaderEESaIS4_EED2Ev@Base 3.3.0
 (optional=templinst)_ZNSt6vectorI14QSharedPointerIN5zxing4oned12UPCEANReaderEESaIS4_EE17_M_realloc_insertIJS4_EEEvN9__gnu_cxx17__normal_iteratorIPS4_S6_EEDpOT_@Base 3.3.0
 (optional=templinst)_ZNSt6vectorI14QSharedPointerIN5zxing4oned12UPCEANReaderEESaIS4_EED1Ev@Base 3.3.0
 (optional=templinst)_ZNSt6vectorI14QSharedPointerIN5zxing4oned12UPCEANReaderEESaIS4_EED2Ev@Base 3.3.0
 (optional=templinst)_ZNSt6vectorI14QSharedPointerIN5zxing5aztec5PointEESaIS4_EE17_M_realloc_insertIJS4_EEEvN9__gnu_cxx17__normal_iteratorIPS4_S6_EEDpOT_@Base 3.3.0
 (optional=templinst)_ZNSt6vectorI14QSharedPointerIN5zxing5aztec5PointEESaIS4_EED1Ev@Base 3.3.0
 (optional=templinst)_ZNSt6vectorI14QSharedPointerIN5zxing5aztec5PointEESaIS4_EED2Ev@Base 3.3.0
 (optional=templinst)_ZNSt6vectorI14QSharedPointerIN5zxing6ReaderEESaIS3_EE17_M_realloc_insertIJS3_EEEvN9__gnu_cxx17__normal_iteratorIPS3_S5_EEDpOT_@Base 3.3.0
 (optional=templinst)_ZNSt6vectorI14QSharedPointerIN5zxing6ResultEESaIS3_EE17_M_realloc_insertIJRKS3_EEEvN9__gnu_cxx17__normal_iteratorIPS3_S5_EEDpOT_@Base 3.3.0
 (optional=templinst)_ZNSt6vectorI14QSharedPointerIN5zxing6ResultEESaIS3_EE17_M_realloc_insertIJS3_EEEvN9__gnu_cxx17__normal_iteratorIPS3_S5_EEDpOT_@Base 3.3.0
 (optional=templinst)_ZNSt6vectorI14QSharedPointerIN5zxing6ResultEESaIS3_EED1Ev@Base 3.3.0
 (optional=templinst)_ZNSt6vectorI14QSharedPointerIN5zxing6ResultEESaIS3_EED2Ev@Base 3.3.0
 (optional=templinst)_ZNSt6vectorI14QSharedPointerIN5zxing6pdf4177decoder2ec11ModulusPolyEESaIS6_EED1Ev@Base 3.3.0
 (optional=templinst)_ZNSt6vectorI14QSharedPointerIN5zxing6pdf4177decoder2ec11ModulusPolyEESaIS6_EED2Ev@Base 3.3.0
 (optional=templinst|subst)_ZNSt6vectorI14QSharedPointerIN5zxing6qrcode13FinderPatternEESaIS4_EE17_M_default_appendE{size_t}@Base 3.3.0
 (optional=templinst)_ZNSt6vectorI14QSharedPointerIN5zxing6qrcode13FinderPatternEESaIS4_EE17_M_realloc_insertIJRKS4_EEEvN9__gnu_cxx17__normal_iteratorIPS4_S6_EEDpOT_@Base 3.3.0
 (optional=templinst)_ZNSt6vectorI14QSharedPointerIN5zxing6qrcode13FinderPatternEESaIS4_EED1Ev@Base 3.3.0
 (optional=templinst)_ZNSt6vectorI14QSharedPointerIN5zxing6qrcode13FinderPatternEESaIS4_EED2Ev@Base 3.3.0
 (optional=templinst)_ZNSt6vectorI14QSharedPointerIN5zxing6qrcode16AlignmentPatternEESaIS4_EE17_M_realloc_insertIJRKS4_EEEvN9__gnu_cxx17__normal_iteratorIPS4_S6_EEDpOT_@Base 3.3.0
 (optional=templinst)_ZNSt6vectorI14QSharedPointerIN5zxing6qrcode17FinderPatternInfoEESaIS4_EE17_M_realloc_insertIJS4_EEEvN9__gnu_cxx17__normal_iteratorIPS4_S6_EEDpOT_@Base 3.3.0
 (optional=templinst)_ZNSt6vectorI14QSharedPointerIN5zxing6qrcode17FinderPatternInfoEESaIS4_EED1Ev@Base 3.3.0
 (optional=templinst)_ZNSt6vectorI14QSharedPointerIN5zxing6qrcode17FinderPatternInfoEESaIS4_EED2Ev@Base 3.3.0
 (optional=templinst)_ZNSt6vectorI14QSharedPointerIN5zxing6qrcode7VersionEESaIS4_EE17_M_realloc_insertIJS4_EEEvN9__gnu_cxx17__normal_iteratorIPS4_S6_EEDpOT_@Base 3.3.0
 (optional=templinst)_ZNSt6vectorI14QSharedPointerIN5zxing6qrcode7VersionEESaIS4_EED1Ev@Base 3.3.0
 (optional=templinst)_ZNSt6vectorI14QSharedPointerIN5zxing6qrcode7VersionEESaIS4_EED2Ev@Base 3.3.0
 (optional=templinst)_ZNSt6vectorI14QSharedPointerIN5zxing6qrcode8DataMaskEESaIS4_EE17_M_realloc_insertIJS4_EEEvN9__gnu_cxx17__normal_iteratorIPS4_S6_EEDpOT_@Base 3.3.0
 (optional=templinst)_ZNSt6vectorI14QSharedPointerIN5zxing6qrcode8DataMaskEESaIS4_EED1Ev@Base 3.3.0
 (optional=templinst)_ZNSt6vectorI14QSharedPointerIN5zxing6qrcode8DataMaskEESaIS4_EED2Ev@Base 3.3.0
 (optional=templinst)_ZNSt6vectorI14QSharedPointerIN5zxing6qrcode9DataBlockEESaIS4_EED1Ev@Base 3.3.0
 (optional=templinst)_ZNSt6vectorI14QSharedPointerIN5zxing6qrcode9DataBlockEESaIS4_EED2Ev@Base 3.3.0
 (optional=templinst)_ZNSt6vectorI14QSharedPointerIS_IhSaIhEEESaIS3_EE17_M_realloc_insertIJRKS3_EEEvN9__gnu_cxx17__normal_iteratorIPS3_S5_EEDpOT_@Base 3.3.0
 (optional=templinst)_ZNSt6vectorIN5zxing4oned3rss11ExpandedRowESaIS3_EE17_M_realloc_insertIJRKS3_EEEvN9__gnu_cxx17__normal_iteratorIPS3_S5_EEDpOT_@Base 3.3.0
 (optional=templinst)_ZNSt6vectorIN5zxing4oned3rss11ExpandedRowESaIS3_EE17_M_realloc_insertIJS3_EEEvN9__gnu_cxx17__normal_iteratorIPS3_S5_EEDpOT_@Base 3.3.0
 (optional=templinst|arch=amd64 hppa ppc64 riscv64 s390x sh4)_ZNSt6vectorIN5zxing4oned3rss11ExpandedRowESaIS3_EEC1ERKS5_@Base 3.3.0
 (optional=templinst|arch=amd64 hppa ppc64 riscv64 s390x sh4)_ZNSt6vectorIN5zxing4oned3rss11ExpandedRowESaIS3_EEC2ERKS5_@Base 3.3.0
 (optional=templinst)_ZNSt6vectorIN5zxing4oned3rss11ExpandedRowESaIS3_EED1Ev@Base 3.3.0
 (optional=templinst)_ZNSt6vectorIN5zxing4oned3rss11ExpandedRowESaIS3_EED2Ev@Base 3.3.0
 (optional=templinst)_ZNSt6vectorIN5zxing4oned3rss12ExpandedPairESaIS3_EE17_M_realloc_insertIJS3_EEEvN9__gnu_cxx17__normal_iteratorIPS3_S5_EEDpOT_@Base 3.3.0
 (optional=templinst)_ZNSt6vectorIN5zxing4oned3rss12ExpandedPairESaIS3_EED1Ev@Base 3.3.0
 (optional=templinst)_ZNSt6vectorIN5zxing4oned3rss12ExpandedPairESaIS3_EED2Ev@Base 3.3.0
 (optional=templinst)_ZNSt6vectorIN5zxing4oned3rss4PairESaIS3_EE17_M_realloc_insertIJRKS3_EEEvN9__gnu_cxx17__normal_iteratorIPS3_S5_EEDpOT_@Base 3.3.0
 (optional=templinst)_ZNSt6vectorIN5zxing4oned3rss4PairESaIS3_EED1Ev@Base 3.3.0
 (optional=templinst)_ZNSt6vectorIN5zxing4oned3rss4PairESaIS3_EED2Ev@Base 3.3.0
 (optional=templinst)_ZNSt6vectorIN5zxing6qrcode9BlockPairESaIS2_EE17_M_realloc_insertIJS2_EEEvN9__gnu_cxx17__normal_iteratorIPS2_S4_EEDpOT_@Base 3.3.0
 (optional=templinst)_ZNSt6vectorIN5zxing6qrcode9BlockPairESaIS2_EED1Ev@Base 3.3.0
 (optional=templinst)_ZNSt6vectorIN5zxing6qrcode9BlockPairESaIS2_EED2Ev@Base 3.3.0
 (optional=templinst)_ZNSt6vectorINSt7__cxx1112basic_stringIcSt11char_traitsIcESaIcEEESaIS5_EE17_M_realloc_insertIJS5_EEEvN9__gnu_cxx17__normal_iteratorIPS5_S7_EEDpOT_@Base 3.3.0
 (optional=templinst)_ZNSt6vectorIPKiSaIS1_EEC1IPA4_S0_vEET_S7_RKS2_@Base 3.3.0
 (optional=templinst)_ZNSt6vectorIPKiSaIS1_EEC2IPA4_S0_vEET_S7_RKS2_@Base 3.3.0
 (optional=templinst)_ZNSt6vectorIPKiSaIS1_EED1Ev@Base 3.3.0
 (optional=templinst)_ZNSt6vectorIPKiSaIS1_EED2Ev@Base 3.3.0
 (optional=templinst)_ZNSt6vectorIPN5zxing10datamatrix3ECBESaIS3_EE17_M_realloc_insertIJRKS3_EEEvN9__gnu_cxx17__normal_iteratorIPS3_S5_EEDpOT_@Base 3.3.0
 (optional=templinst)_ZNSt6vectorIPN5zxing6common15CharacterSetECIESaIS3_EE17_M_realloc_insertIJRKS3_EEEvN9__gnu_cxx17__normal_iteratorIPS3_S5_EEDpOT_@Base 3.3.0
 (optional=templinst)_ZNSt6vectorIPN5zxing6common15CharacterSetECIESaIS3_EED1Ev@Base 3.3.0
 (optional=templinst)_ZNSt6vectorIPN5zxing6common15CharacterSetECIESaIS3_EED2Ev@Base 3.3.0
 (optional=templinst)_ZNSt6vectorIPN5zxing6qrcode3ECBESaIS3_EE17_M_realloc_insertIJRKS3_EEEvN9__gnu_cxx17__normal_iteratorIPS3_S5_EEDpOT_@Base 3.3.0
 (optional=templinst)_ZNSt6vectorIS_I14QSharedPointerIN5zxing6qrcode13FinderPatternEESaIS4_EESaIS6_EE17_M_realloc_insertIJRKS6_EEEvN9__gnu_cxx17__normal_iteratorIPS6_S8_EEDpOT_@Base 3.3.0
 (optional=templinst)_ZNSt6vectorIS_I14QSharedPointerIN5zxing6qrcode13FinderPatternEESaIS4_EESaIS6_EED1Ev@Base 3.3.0
 (optional=templinst)_ZNSt6vectorIS_I14QSharedPointerIN5zxing6qrcode13FinderPatternEESaIS4_EESaIS6_EED2Ev@Base 3.3.0
 (optional=templinst|subst)_ZNSt6vectorIS_ISt3mapIiiSt4lessIiESaISt4pairIKiiEEESaIS7_EESaIS9_EE17_M_default_appendE{size_t}@Base 3.3.0
 (optional=templinst)_ZNSt6vectorIS_ISt3mapIiiSt4lessIiESaISt4pairIKiiEEESaIS7_EESaIS9_EED1Ev@Base 3.3.0
 (optional=templinst)_ZNSt6vectorIS_ISt3mapIiiSt4lessIiESaISt4pairIKiiEEESaIS7_EESaIS9_EED2Ev@Base 3.3.0
 (optional=templinst)_ZNSt6vectorIS_IfSaIfEESaIS1_EED1Ev@Base 3.3.0
 (optional=templinst)_ZNSt6vectorIS_IfSaIfEESaIS1_EED2Ev@Base 3.3.0
 (optional=templinst|subst)_ZNSt6vectorIS_IhSaIhEESaIS1_EE17_M_default_appendE{size_t}@Base 3.3.0
 (optional=templinst)_ZNSt6vectorIS_IhSaIhEESaIS1_EED1Ev@Base 3.3.0
 (optional=templinst)_ZNSt6vectorIS_IhSaIhEESaIS1_EED2Ev@Base 3.3.0
 (optional=templinst)_ZNSt6vectorIS_IiSaIiEESaIS1_EE14_M_insert_rvalEN9__gnu_cxx17__normal_iteratorIPKS1_S3_EEOS1_@Base 3.3.0
 (optional=templinst|subst)_ZNSt6vectorIS_IiSaIiEESaIS1_EE17_M_default_appendE{size_t}@Base 3.3.0
 (optional=templinst)_ZNSt6vectorIS_IiSaIiEESaIS1_EEC1ESt16initializer_listIS1_ERKS2_@Base 3.3.0
 (optional=templinst)_ZNSt6vectorIS_IiSaIiEESaIS1_EEC2ESt16initializer_listIS1_ERKS2_@Base 3.3.0
 (optional=templinst)_ZNSt6vectorIS_IiSaIiEESaIS1_EED1Ev@Base 3.3.0
 (optional=templinst)_ZNSt6vectorIS_IiSaIiEESaIS1_EED2Ev@Base 3.3.0
 (optional=templinst|subst)_ZNSt6vectorISt3mapIiiSt4lessIiESaISt4pairIKiiEEESaIS7_EE17_M_default_appendE{size_t}@Base 3.3.0
 (optional=templinst|subst)_ZNSt6vectorIfSaIfEE14_M_fill_insertEN9__gnu_cxx17__normal_iteratorIPfS1_EE{size_t}RKf@Base 3.3.0
 (optional=templinst|subst)_ZNSt6vectorIfSaIfEE17_M_default_appendE{size_t}@Base 3.3.0
 (optional=templinst)_ZNSt6vectorIfSaIfEE17_M_realloc_insertIJRKfEEEvN9__gnu_cxx17__normal_iteratorIPfS1_EEDpOT_@Base 3.3.0
 (optional=templinst)_ZNSt6vectorIfSaIfEED1Ev@Base 3.3.0
 (optional=templinst)_ZNSt6vectorIfSaIfEED2Ev@Base 3.3.0
 (optional=templinst|subst)_ZNSt6vectorIhSaIhEE17_M_default_appendE{size_t}@Base 3.3.0
 (optional=templinst)_ZNSt6vectorIhSaIhEE17_M_realloc_insertIJhEEEvN9__gnu_cxx17__normal_iteratorIPhS1_EEDpOT_@Base 3.3.0
 (optional=templinst|subst)_ZNSt6vectorIiSaIiEE14_M_fill_assignE{size_t}RKi@Base 3.3.0
 (optional=templinst|subst)_ZNSt6vectorIiSaIiEE14_M_fill_insertEN9__gnu_cxx17__normal_iteratorIPiS1_EE{size_t}RKi@Base 3.3.0
 (optional=templinst|subst)_ZNSt6vectorIiSaIiEE17_M_default_appendE{size_t}@Base 3.3.0
 (optional=templinst)_ZNSt6vectorIiSaIiEE17_M_realloc_insertIJRKiEEEvN9__gnu_cxx17__normal_iteratorIPiS1_EEDpOT_@Base 3.3.0
 (optional=templinst)_ZNSt6vectorIiSaIiEEC1ESt16initializer_listIiERKS0_@Base 3.3.0
 (optional=templinst)_ZNSt6vectorIiSaIiEEC1IPKivEET_S5_RKS0_@Base 3.3.0
 (optional=templinst)_ZNSt6vectorIiSaIiEEC2ESt16initializer_listIiERKS0_@Base 3.3.0
 (optional=templinst)_ZNSt6vectorIiSaIiEEC2IPKivEET_S5_RKS0_@Base 3.3.0
 (optional=templinst)_ZNSt6vectorIiSaIiEED1Ev@Base 3.3.0
 (optional=templinst)_ZNSt6vectorIiSaIiEED2Ev@Base 3.3.0
 (optional=templinst)_ZNSt7__cxx1112basic_stringIcSt11char_traitsIcESaIcEEC1IS3_EEPKcRKS3_@Base 3.3.0
 (optional=templinst)_ZNSt7__cxx1112basic_stringIcSt11char_traitsIcESaIcEEC2IS3_EEPKcRKS3_@Base 3.3.0
 (optional=templinst)_ZNSt7__cxx1115basic_stringbufIcSt11char_traitsIcESaIcEED0Ev@Base 3.3.0
 (optional=templinst)_ZNSt7__cxx1115basic_stringbufIcSt11char_traitsIcESaIcEED1Ev@Base 3.3.0
 (optional=templinst)_ZNSt7__cxx1115basic_stringbufIcSt11char_traitsIcESaIcEED2Ev@Base 3.3.0
 (optional=templinst)_ZNSt8_Rb_treeI14QSharedPointerIN5zxing11ResultPointEESt4pairIKS3_iESt10_Select1stIS6_ESt4lessIS3_ESaIS6_EE24_M_get_insert_unique_posERS5_@Base 3.3.0
 (optional=templinst|arch=amd64 hppa riscv64 sh4)_ZNSt8_Rb_treeI14QSharedPointerIN5zxing11ResultPointEESt4pairIKS3_iESt10_Select1stIS6_ESt4lessIS3_ESaIS6_EE29_M_get_insert_hint_unique_posESt23_Rb_tree_const_iteratorIS6_ERS5_@Base 3.3.0
 (optional=templinst)_ZNSt8_Rb_treeIN5zxing14ResultMetadata3KeyESt4pairIKS2_St10shared_ptrINS1_5ValueEEESt10_Select1stIS8_ESt4lessIS2_ESaIS8_EE24_M_get_insert_unique_posERS4_@Base 3.3.0
 (optional=templinst)_ZNSt8_Rb_treeIN5zxing14ResultMetadata3KeyESt4pairIKS2_St10shared_ptrINS1_5ValueEEESt10_Select1stIS8_ESt4lessIS2_ESaIS8_EE29_M_get_insert_hint_unique_posESt23_Rb_tree_const_iteratorIS8_ERS4_@Base 3.3.0
 (optional=templinst)_ZNSt8_Rb_treeINSt7__cxx1112basic_stringIcSt11char_traitsIcESaIcEEESt4pairIKS5_PN5zxing6common15CharacterSetECIEESt10_Select1stISC_ESt4lessIS5_ESaISC_EE24_M_get_insert_unique_posERS7_@Base 3.3.0
 (optional=templinst)_ZNSt8_Rb_treeINSt7__cxx1112basic_stringIcSt11char_traitsIcESaIcEEESt4pairIKS5_PN5zxing6common15CharacterSetECIEESt10_Select1stISC_ESt4lessIS5_ESaISC_EE29_M_get_insert_hint_unique_posESt23_Rb_tree_const_iteratorISC_ERS7_@Base 3.3.0
 (optional=templinst)_ZNSt8_Rb_treeIiSt4pairIKiPN5zxing6common15CharacterSetECIEESt10_Select1stIS6_ESt4lessIiESaIS6_EE22_M_emplace_hint_uniqueIJRKSt21piecewise_construct_tSt5tupleIJRS1_EESH_IJEEEEESt17_Rb_tree_iteratorIS6_ESt23_Rb_tree_const_iteratorIS6_EDpOT_@Base 3.3.0
 (optional=templinst)_ZNSt8_Rb_treeIiSt4pairIKiPN5zxing6common15CharacterSetECIEESt10_Select1stIS6_ESt4lessIiESaIS6_EE24_M_get_insert_unique_posERS1_@Base 3.3.0
 (optional=templinst|arch=amd64 hppa riscv64 sh4)_ZNSt8_Rb_treeIiSt4pairIKiPN5zxing6common15CharacterSetECIEESt10_Select1stIS6_ESt4lessIiESaIS6_EE29_M_get_insert_hint_unique_posESt23_Rb_tree_const_iteratorIS6_ERS1_@Base 3.3.0
 (optional=templinst)_ZNSt8_Rb_treeIiSt4pairIKiiESt10_Select1stIS2_ESt4lessIiESaIS2_EE22_M_emplace_hint_uniqueIJRKSt21piecewise_construct_tSt5tupleIJRS1_EESD_IJEEEEESt17_Rb_tree_iteratorIS2_ESt23_Rb_tree_const_iteratorIS2_EDpOT_@Base 3.3.0
 (optional=templinst)_ZNSt8_Rb_treeIiSt4pairIKiiESt10_Select1stIS2_ESt4lessIiESaIS2_EE24_M_get_insert_unique_posERS1_@Base 3.3.0
 (optional=templinst|arch=amd64 hppa riscv64 sh4)_ZNSt8_Rb_treeIiSt4pairIKiiESt10_Select1stIS2_ESt4lessIiESaIS2_EE29_M_get_insert_hint_unique_posESt23_Rb_tree_const_iteratorIS2_ERS1_@Base 3.3.0
 (optional=templinst)_ZNSt8_Rb_treeIiiSt9_IdentityIiESt4lessIiESaIiEE16_M_assign_uniqueIPKiEEvT_S9_@Base 3.3.0
 (optional=templinst)_ZNSt8_Rb_treeIiiSt9_IdentityIiESt4lessIiESaIiEE24_M_get_insert_unique_posERKi@Base 3.3.0
 (optional=templinst)_ZNSt8_Rb_treeIiiSt9_IdentityIiESt4lessIiESaIiEE29_M_get_insert_hint_unique_posESt23_Rb_tree_const_iteratorIiERKi@Base 3.3.0
 (optional=templinst|subst)_ZSt11__push_heapIN9__gnu_cxx17__normal_iteratorIP14QSharedPointerIN5zxing6qrcode13FinderPatternEESt6vectorIS6_SaIS6_EEEE{ssize_t}S6_NS0_5__ops14_Iter_comp_valIPFbS6_S6_EEEEvT_T0_SI_T1_RT2_@Base 3.3.0
 (optional=templinst|subst)_ZSt13__adjust_heapIN9__gnu_cxx17__normal_iteratorIP14QSharedPointerIN5zxing6qrcode13FinderPatternEESt6vectorIS6_SaIS6_EEEE{ssize_t}S6_NS0_5__ops15_Iter_comp_iterIPFbS6_S6_EEEEvT_T0_SI_T1_T2_@Base 3.3.0
 (optional=templinst)_ZSt13__heap_selectIN9__gnu_cxx17__normal_iteratorIP14QSharedPointerIN5zxing6qrcode13FinderPatternEESt6vectorIS6_SaIS6_EEEENS0_5__ops15_Iter_comp_iterIPFbS6_S6_EEEEvT_SH_SH_T0_@Base 3.3.0
 (optional=templinst)_ZSt16__do_uninit_copyIN9__gnu_cxx17__normal_iteratorIPKSt6vectorIhSaIhEES2_IS4_SaIS4_EEEEPS4_ET0_T_SC_SB_@Base 3.3.0
 (optional=templinst)_ZSt16__do_uninit_copyIPKN5zxing4oned3rss4PairEPS3_ET0_T_S8_S7_@Base 3.3.0
 (optional=templinst)_ZSt16__insertion_sortIN9__gnu_cxx17__normal_iteratorIP14QSharedPointerIN5zxing6qrcode13FinderPatternEESt6vectorIS6_SaIS6_EEEENS0_5__ops15_Iter_comp_iterIPFbS6_S6_EEEEvT_SH_T0_@Base 3.3.0
 (optional=templinst|subst)_ZSt16__introsort_loopIN9__gnu_cxx17__normal_iteratorIP14QSharedPointerIN5zxing6qrcode13FinderPatternEESt6vectorIS6_SaIS6_EEEE{ssize_t}NS0_5__ops15_Iter_comp_iterIPFbS6_S6_EEEEvT_SH_T0_T1_@Base 3.3.0
 _ZSt19piecewise_construct@Base 3.3.0
 (optional=templinst)_ZSt25__unguarded_linear_insertIN9__gnu_cxx17__normal_iteratorIP14QSharedPointerIN5zxing6qrcode13FinderPatternEESt6vectorIS6_SaIS6_EEEENS0_5__ops14_Val_comp_iterIPFbS6_S6_EEEEvT_T0_@Base 3.3.0
 (optional=templinst|arch=!mipsel)_ZStplIcSt11char_traitsIcESaIcEENSt7__cxx1112basic_stringIT_T0_T1_EES5_RKS8_@Base 3.3.0
 _ZTI12ImageHandler@Base 3.3.0
 _ZTI12QZXingFilter@Base 3.3.0
 _ZTI16QFutureInterfaceIvE@Base 3.3.0
 _ZTI18CameraImageWrapper@Base 3.3.0
 _ZTI19QZXingImageProvider@Base 3.3.0
 _ZTI20QZXingFilterRunnable@Base 3.3.0
 _ZTI6QZXing@Base 3.3.0
 _ZTIN11QQmlPrivate11QQmlElementI12QZXingFilterEE@Base 3.3.0
 _ZTIN11QQmlPrivate11QQmlElementI6QZXingEE@Base 3.3.0
 _ZTIN12QtConcurrent15RunFunctionTaskIvEE@Base 3.3.0
 _ZTIN12QtConcurrent19RunFunctionTaskBaseIvEE@Base 3.3.0
 _ZTIN12QtConcurrent36VoidStoredMemberFunctionPointerCall2Iv20QZXingFilterRunnableR16SimpleVideoFrameS2_RK5QRectS4_EE@Base 3.3.0
 _ZTIN5zxing10datamatrix11CornerPointE@Base 3.3.0
 _ZTIN5zxing10datamatrix16DataMatrixReaderE@Base 3.3.0
 _ZTIN5zxing10datamatrix17DetectorExceptionE@Base 3.3.0
 _ZTIN5zxing10datamatrix8DetectorE@Base 3.3.0
 _ZTIN5zxing11ResultPointE@Base 3.3.0
 _ZTIN5zxing12BinaryBitmapE@Base 3.3.0
 _ZTIN5zxing14ResultMetadata11StringValueE@Base 3.3.0
 _ZTIN5zxing14ResultMetadata12IntegerValueE@Base 3.3.0
 _ZTIN5zxing14ResultMetadata5ValueE@Base 3.3.0
 _ZTIN5zxing15FormatExceptionE@Base 3.3.0
 _ZTIN5zxing15HybridBinarizerE@Base 3.3.0
 _ZTIN5zxing15LuminanceSourceE@Base 3.3.0
 _ZTIN5zxing15ReaderExceptionE@Base 3.3.0
 _ZTIN5zxing15WriterExceptionE@Base 3.3.0
 _ZTIN5zxing17ChecksumExceptionE@Base 3.3.0
 _ZTIN5zxing17MultiFormatReaderE@Base 3.3.0
 _ZTIN5zxing17NotFoundExceptionE@Base 3.3.0
 _ZTIN5zxing19ResultPointCallbackE@Base 3.3.0
 _ZTIN5zxing20ReedSolomonExceptionE@Base 3.3.0
 _ZTIN5zxing21IllegalStateExceptionE@Base 3.3.0
 _ZTIN5zxing23InvertedLuminanceSourceE@Base 3.3.0
 _ZTIN5zxing24GlobalHistogramBinarizerE@Base 3.3.0
 _ZTIN5zxing24GreyscaleLuminanceSourceE@Base 3.3.0
 _ZTIN5zxing24IllegalArgumentExceptionE@Base 3.3.0
 _ZTIN5zxing31GreyscaleRotatedLuminanceSourceE@Base 3.3.0
 _ZTIN5zxing4oned10EAN8ReaderE@Base 3.3.0
 _ZTIN5zxing4oned10OneDReaderE@Base 3.3.0
 _ZTIN5zxing4oned10UPCAReaderE@Base 3.3.0
 _ZTIN5zxing4oned10UPCEReaderE@Base 3.3.0
 _ZTIN5zxing4oned11EAN13ReaderE@Base 3.3.0
 _ZTIN5zxing4oned12Code39ReaderE@Base 3.3.0
 _ZTIN5zxing4oned12Code93ReaderE@Base 3.3.0
 _ZTIN5zxing4oned12UPCEANReaderE@Base 3.3.0
 _ZTIN5zxing4oned13CodaBarReaderE@Base 3.3.0
 _ZTIN5zxing4oned13Code128ReaderE@Base 3.3.0
 _ZTIN5zxing4oned15OneDResultPointE@Base 3.3.0
 _ZTIN5zxing4oned21MultiFormatOneDReaderE@Base 3.3.0
 _ZTIN5zxing4oned23MultiFormatUPCEANReaderE@Base 3.3.0
 _ZTIN5zxing4oned3rss11AI01decoderE@Base 3.3.0
 _ZTIN5zxing4oned3rss11RSS14ReaderE@Base 3.3.0
 _ZTIN5zxing4oned3rss12AnyAIDecoderE@Base 3.3.0
 _ZTIN5zxing4oned3rss15AI013103decoderE@Base 3.3.0
 _ZTIN5zxing4oned3rss15AI01320xDecoderE@Base 3.3.0
 _ZTIN5zxing4oned3rss15AI01392xDecoderE@Base 3.3.0
 _ZTIN5zxing4oned3rss15AI01393xDecoderE@Base 3.3.0
 _ZTIN5zxing4oned3rss15AI013x0xDecoderE@Base 3.3.0
 _ZTIN5zxing4oned3rss15AI01AndOtherAIsE@Base 3.3.0
 _ZTIN5zxing4oned3rss17AI013x0x1xDecoderE@Base 3.3.0
 _ZTIN5zxing4oned3rss17AI01weightDecoderE@Base 3.3.0
 _ZTIN5zxing4oned3rss17AbstractRSSReaderE@Base 3.3.0
 _ZTIN5zxing4oned3rss17RSSExpandedReaderE@Base 3.3.0
 _ZTIN5zxing4oned3rss23AbstractExpandedDecoderE@Base 3.3.0
 _ZTIN5zxing4oned9ITFReaderE@Base 3.3.0
 _ZTIN5zxing5aztec11AztecReaderE@Base 3.3.0
 _ZTIN5zxing5multi13MultiDetectorE@Base 3.3.0
 _ZTIN5zxing5multi16ByQuadrantReaderE@Base 3.3.0
 _ZTIN5zxing5multi17QRCodeMultiReaderE@Base 3.3.0
 _ZTIN5zxing5multi21MultipleBarcodeReaderE@Base 3.3.0
 _ZTIN5zxing5multi24MultiFinderPatternFinderE@Base 3.3.0
 _ZTIN5zxing5multi28GenericMultipleBarcodeReaderE@Base 3.3.0
 _ZTIN5zxing6ReaderE@Base 3.3.0
 _ZTIN5zxing6pdf41712PDF417ReaderE@Base 3.3.0
 _ZTIN5zxing6qrcode11DataMask000E@Base 3.3.0
 _ZTIN5zxing6qrcode11DataMask001E@Base 3.3.0
 _ZTIN5zxing6qrcode11DataMask010E@Base 3.3.0
 _ZTIN5zxing6qrcode11DataMask011E@Base 3.3.0
 _ZTIN5zxing6qrcode11DataMask100E@Base 3.3.0
 _ZTIN5zxing6qrcode11DataMask101E@Base 3.3.0
 _ZTIN5zxing6qrcode11DataMask110E@Base 3.3.0
 _ZTIN5zxing6qrcode11DataMask111E@Base 3.3.0
 _ZTIN5zxing6qrcode12QRCodeReaderE@Base 3.3.0
 _ZTIN5zxing6qrcode13FinderPatternE@Base 3.3.0
 _ZTIN5zxing6qrcode16AlignmentPatternE@Base 3.3.0
 _ZTIN5zxing6qrcode19FinderPatternFinderE@Base 3.3.0
 _ZTIN5zxing6qrcode8DataMaskE@Base 3.3.0
 _ZTIN5zxing6qrcode8DetectorE@Base 3.3.0
 _ZTIN5zxing9BinarizerE@Base 3.3.0
 _ZTIN5zxing9ExceptionE@Base 3.3.0
 (arch=armel riscv64)_ZTIN9__gnu_cxx7__mutexE@Base 3.3.0
 (arch=armel riscv64)_ZTISt11_Mutex_baseILN9__gnu_cxx12_Lock_policyE1EE@Base 3.3.0
 (arch=!armel !riscv64)_ZTISt11_Mutex_baseILN9__gnu_cxx12_Lock_policyE2EE@Base 3.3.0
 (arch=armel riscv64)_ZTISt16_Sp_counted_baseILN9__gnu_cxx12_Lock_policyE1EE@Base 3.3.0
 (arch=!armel !riscv64)_ZTISt16_Sp_counted_baseILN9__gnu_cxx12_Lock_policyE2EE@Base 3.3.0
 (arch=armel armhf)_ZTISt19_Sp_make_shared_tag@Base 3.3.0
 (arch=armel riscv64)_ZTISt23_Sp_counted_ptr_inplaceIN5zxing14ResultMetadata11StringValueESaIvELN9__gnu_cxx12_Lock_policyE1EE@Base 3.3.0
 (arch=!armel !riscv64)_ZTISt23_Sp_counted_ptr_inplaceIN5zxing14ResultMetadata11StringValueESaIvELN9__gnu_cxx12_Lock_policyE2EE@Base 3.3.0
 (arch=armel riscv64)_ZTISt23_Sp_counted_ptr_inplaceIN5zxing14ResultMetadata12IntegerValueESaIvELN9__gnu_cxx12_Lock_policyE1EE@Base 3.3.0
 (arch=!armel !riscv64)_ZTISt23_Sp_counted_ptr_inplaceIN5zxing14ResultMetadata12IntegerValueESaIvELN9__gnu_cxx12_Lock_policyE2EE@Base 3.3.0
 _ZTS12ImageHandler@Base 3.3.0
 _ZTS12QZXingFilter@Base 3.3.0
 _ZTS16QFutureInterfaceIvE@Base 3.3.0
 _ZTS18CameraImageWrapper@Base 3.3.0
 _ZTS19QZXingImageProvider@Base 3.3.0
 _ZTS20QZXingFilterRunnable@Base 3.3.0
 _ZTS6QZXing@Base 3.3.0
 _ZTSN11QQmlPrivate11QQmlElementI12QZXingFilterEE@Base 3.3.0
 _ZTSN11QQmlPrivate11QQmlElementI6QZXingEE@Base 3.3.0
 _ZTSN12QtConcurrent15RunFunctionTaskIvEE@Base 3.3.0
 _ZTSN12QtConcurrent19RunFunctionTaskBaseIvEE@Base 3.3.0
 _ZTSN12QtConcurrent36VoidStoredMemberFunctionPointerCall2Iv20QZXingFilterRunnableR16SimpleVideoFrameS2_RK5QRectS4_EE@Base 3.3.0
 _ZTSN5zxing10datamatrix11CornerPointE@Base 3.3.0
 _ZTSN5zxing10datamatrix16DataMatrixReaderE@Base 3.3.0
 _ZTSN5zxing10datamatrix17DetectorExceptionE@Base 3.3.0
 _ZTSN5zxing10datamatrix8DetectorE@Base 3.3.0
 _ZTSN5zxing11ResultPointE@Base 3.3.0
 _ZTSN5zxing12BinaryBitmapE@Base 3.3.0
 _ZTSN5zxing14ResultMetadata11StringValueE@Base 3.3.0
 _ZTSN5zxing14ResultMetadata12IntegerValueE@Base 3.3.0
 _ZTSN5zxing14ResultMetadata5ValueE@Base 3.3.0
 _ZTSN5zxing15FormatExceptionE@Base 3.3.0
 _ZTSN5zxing15HybridBinarizerE@Base 3.3.0
 _ZTSN5zxing15LuminanceSourceE@Base 3.3.0
 _ZTSN5zxing15ReaderExceptionE@Base 3.3.0
 _ZTSN5zxing15WriterExceptionE@Base 3.3.0
 _ZTSN5zxing17ChecksumExceptionE@Base 3.3.0
 _ZTSN5zxing17MultiFormatReaderE@Base 3.3.0
 _ZTSN5zxing17NotFoundExceptionE@Base 3.3.0
 _ZTSN5zxing19ResultPointCallbackE@Base 3.3.0
 _ZTSN5zxing20ReedSolomonExceptionE@Base 3.3.0
 _ZTSN5zxing21IllegalStateExceptionE@Base 3.3.0
 _ZTSN5zxing23InvertedLuminanceSourceE@Base 3.3.0
 _ZTSN5zxing24GlobalHistogramBinarizerE@Base 3.3.0
 _ZTSN5zxing24GreyscaleLuminanceSourceE@Base 3.3.0
 _ZTSN5zxing24IllegalArgumentExceptionE@Base 3.3.0
 _ZTSN5zxing31GreyscaleRotatedLuminanceSourceE@Base 3.3.0
 _ZTSN5zxing4oned10EAN8ReaderE@Base 3.3.0
 _ZTSN5zxing4oned10OneDReaderE@Base 3.3.0
 _ZTSN5zxing4oned10UPCAReaderE@Base 3.3.0
 _ZTSN5zxing4oned10UPCEReaderE@Base 3.3.0
 _ZTSN5zxing4oned11EAN13ReaderE@Base 3.3.0
 _ZTSN5zxing4oned12Code39ReaderE@Base 3.3.0
 _ZTSN5zxing4oned12Code93ReaderE@Base 3.3.0
 _ZTSN5zxing4oned12UPCEANReaderE@Base 3.3.0
 _ZTSN5zxing4oned13CodaBarReaderE@Base 3.3.0
 _ZTSN5zxing4oned13Code128ReaderE@Base 3.3.0
 _ZTSN5zxing4oned15OneDResultPointE@Base 3.3.0
 _ZTSN5zxing4oned21MultiFormatOneDReaderE@Base 3.3.0
 _ZTSN5zxing4oned23MultiFormatUPCEANReaderE@Base 3.3.0
 _ZTSN5zxing4oned3rss11AI01decoderE@Base 3.3.0
 _ZTSN5zxing4oned3rss11RSS14ReaderE@Base 3.3.0
 _ZTSN5zxing4oned3rss12AnyAIDecoderE@Base 3.3.0
 _ZTSN5zxing4oned3rss15AI013103decoderE@Base 3.3.0
 _ZTSN5zxing4oned3rss15AI01320xDecoderE@Base 3.3.0
 _ZTSN5zxing4oned3rss15AI01392xDecoderE@Base 3.3.0
 _ZTSN5zxing4oned3rss15AI01393xDecoderE@Base 3.3.0
 _ZTSN5zxing4oned3rss15AI013x0xDecoderE@Base 3.3.0
 _ZTSN5zxing4oned3rss15AI01AndOtherAIsE@Base 3.3.0
 _ZTSN5zxing4oned3rss17AI013x0x1xDecoderE@Base 3.3.0
 _ZTSN5zxing4oned3rss17AI01weightDecoderE@Base 3.3.0
 _ZTSN5zxing4oned3rss17AbstractRSSReaderE@Base 3.3.0
 _ZTSN5zxing4oned3rss17RSSExpandedReaderE@Base 3.3.0
 _ZTSN5zxing4oned3rss23AbstractExpandedDecoderE@Base 3.3.0
 _ZTSN5zxing4oned9ITFReaderE@Base 3.3.0
 _ZTSN5zxing5aztec11AztecReaderE@Base 3.3.0
 _ZTSN5zxing5multi13MultiDetectorE@Base 3.3.0
 _ZTSN5zxing5multi16ByQuadrantReaderE@Base 3.3.0
 _ZTSN5zxing5multi17QRCodeMultiReaderE@Base 3.3.0
 _ZTSN5zxing5multi21MultipleBarcodeReaderE@Base 3.3.0
 _ZTSN5zxing5multi24MultiFinderPatternFinderE@Base 3.3.0
 _ZTSN5zxing5multi28GenericMultipleBarcodeReaderE@Base 3.3.0
 _ZTSN5zxing6ReaderE@Base 3.3.0
 _ZTSN5zxing6pdf41712PDF417ReaderE@Base 3.3.0
 _ZTSN5zxing6qrcode11DataMask000E@Base 3.3.0
 _ZTSN5zxing6qrcode11DataMask001E@Base 3.3.0
 _ZTSN5zxing6qrcode11DataMask010E@Base 3.3.0
 _ZTSN5zxing6qrcode11DataMask011E@Base 3.3.0
 _ZTSN5zxing6qrcode11DataMask100E@Base 3.3.0
 _ZTSN5zxing6qrcode11DataMask101E@Base 3.3.0
 _ZTSN5zxing6qrcode11DataMask110E@Base 3.3.0
 _ZTSN5zxing6qrcode11DataMask111E@Base 3.3.0
 _ZTSN5zxing6qrcode12QRCodeReaderE@Base 3.3.0
 _ZTSN5zxing6qrcode13FinderPatternE@Base 3.3.0
 _ZTSN5zxing6qrcode16AlignmentPatternE@Base 3.3.0
 _ZTSN5zxing6qrcode19FinderPatternFinderE@Base 3.3.0
 _ZTSN5zxing6qrcode8DataMaskE@Base 3.3.0
 _ZTSN5zxing6qrcode8DetectorE@Base 3.3.0
 _ZTSN5zxing9BinarizerE@Base 3.3.0
 _ZTSN5zxing9ExceptionE@Base 3.3.0
 (arch=armel riscv64)_ZTSN9__gnu_cxx7__mutexE@Base 3.3.0
 (arch=armel riscv64)_ZTSSt11_Mutex_baseILN9__gnu_cxx12_Lock_policyE1EE@Base 3.3.0
 (arch=!armel !riscv64)_ZTSSt11_Mutex_baseILN9__gnu_cxx12_Lock_policyE2EE@Base 3.3.0
 (arch=armel riscv64)_ZTSSt16_Sp_counted_baseILN9__gnu_cxx12_Lock_policyE1EE@Base 3.3.0
 (arch=!armel !riscv64)_ZTSSt16_Sp_counted_baseILN9__gnu_cxx12_Lock_policyE2EE@Base 3.3.0
 _ZTSSt19_Sp_make_shared_tag@Base 3.3.0
 (arch=armel riscv64)_ZTSSt23_Sp_counted_ptr_inplaceIN5zxing14ResultMetadata11StringValueESaIvELN9__gnu_cxx12_Lock_policyE1EE@Base 3.3.0
 (arch=!armel !riscv64)_ZTSSt23_Sp_counted_ptr_inplaceIN5zxing14ResultMetadata11StringValueESaIvELN9__gnu_cxx12_Lock_policyE2EE@Base 3.3.0
 (arch=armel riscv64)_ZTSSt23_Sp_counted_ptr_inplaceIN5zxing14ResultMetadata12IntegerValueESaIvELN9__gnu_cxx12_Lock_policyE1EE@Base 3.3.0
 (arch=!armel !riscv64)_ZTSSt23_Sp_counted_ptr_inplaceIN5zxing14ResultMetadata12IntegerValueESaIvELN9__gnu_cxx12_Lock_policyE2EE@Base 3.3.0
 _ZTV12ImageHandler@Base 3.3.0
 _ZTV12QZXingFilter@Base 3.3.0
 _ZTV16QFutureInterfaceIvE@Base 3.3.0
 _ZTV18CameraImageWrapper@Base 3.3.0
 _ZTV19QZXingImageProvider@Base 3.3.0
 _ZTV20QZXingFilterRunnable@Base 3.3.0
 _ZTV6QZXing@Base 3.3.0
 _ZTVN11QQmlPrivate11QQmlElementI12QZXingFilterEE@Base 3.3.0
 _ZTVN11QQmlPrivate11QQmlElementI6QZXingEE@Base 3.3.0
 _ZTVN12QtConcurrent19RunFunctionTaskBaseIvEE@Base 3.3.0
 _ZTVN12QtConcurrent36VoidStoredMemberFunctionPointerCall2Iv20QZXingFilterRunnableR16SimpleVideoFrameS2_RK5QRectS4_EE@Base 3.3.0
 _ZTVN5zxing10datamatrix11CornerPointE@Base 3.3.0
 _ZTVN5zxing10datamatrix16DataMatrixReaderE@Base 3.3.0
 _ZTVN5zxing10datamatrix17DetectorExceptionE@Base 3.3.0
 _ZTVN5zxing10datamatrix8DetectorE@Base 3.3.0
 _ZTVN5zxing11ResultPointE@Base 3.3.0
 _ZTVN5zxing12BinaryBitmapE@Base 3.3.0
 _ZTVN5zxing14ResultMetadata11StringValueE@Base 3.3.0
 _ZTVN5zxing14ResultMetadata12IntegerValueE@Base 3.3.0
 _ZTVN5zxing15FormatExceptionE@Base 3.3.0
 _ZTVN5zxing15HybridBinarizerE@Base 3.3.0
 _ZTVN5zxing15LuminanceSourceE@Base 3.3.0
 _ZTVN5zxing15ReaderExceptionE@Base 3.3.0
 _ZTVN5zxing15WriterExceptionE@Base 3.3.0
 _ZTVN5zxing17ChecksumExceptionE@Base 3.3.0
 _ZTVN5zxing17MultiFormatReaderE@Base 3.3.0
 _ZTVN5zxing17NotFoundExceptionE@Base 3.3.0
 _ZTVN5zxing19ResultPointCallbackE@Base 3.3.0
 _ZTVN5zxing20ReedSolomonExceptionE@Base 3.3.0
 _ZTVN5zxing21IllegalStateExceptionE@Base 3.3.0
 _ZTVN5zxing23InvertedLuminanceSourceE@Base 3.3.0
 _ZTVN5zxing24GlobalHistogramBinarizerE@Base 3.3.0
 _ZTVN5zxing24GreyscaleLuminanceSourceE@Base 3.3.0
 _ZTVN5zxing24IllegalArgumentExceptionE@Base 3.3.0
 _ZTVN5zxing31GreyscaleRotatedLuminanceSourceE@Base 3.3.0
 _ZTVN5zxing4oned10EAN8ReaderE@Base 3.3.0
 _ZTVN5zxing4oned10OneDReaderE@Base 3.3.0
 _ZTVN5zxing4oned10UPCAReaderE@Base 3.3.0
 _ZTVN5zxing4oned10UPCEReaderE@Base 3.3.0
 _ZTVN5zxing4oned11EAN13ReaderE@Base 3.3.0
 _ZTVN5zxing4oned12Code39ReaderE@Base 3.3.0
 _ZTVN5zxing4oned12Code93ReaderE@Base 3.3.0
 _ZTVN5zxing4oned12UPCEANReaderE@Base 3.3.0
 _ZTVN5zxing4oned13CodaBarReaderE@Base 3.3.0
 _ZTVN5zxing4oned13Code128ReaderE@Base 3.3.0
 _ZTVN5zxing4oned15OneDResultPointE@Base 3.3.0
 _ZTVN5zxing4oned21MultiFormatOneDReaderE@Base 3.3.0
 _ZTVN5zxing4oned23MultiFormatUPCEANReaderE@Base 3.3.0
 _ZTVN5zxing4oned3rss11AI01decoderE@Base 3.3.0
 _ZTVN5zxing4oned3rss11RSS14ReaderE@Base 3.3.0
 _ZTVN5zxing4oned3rss12AnyAIDecoderE@Base 3.3.0
 _ZTVN5zxing4oned3rss15AI013103decoderE@Base 3.3.0
 _ZTVN5zxing4oned3rss15AI01320xDecoderE@Base 3.3.0
 _ZTVN5zxing4oned3rss15AI01392xDecoderE@Base 3.3.0
 _ZTVN5zxing4oned3rss15AI01393xDecoderE@Base 3.3.0
 _ZTVN5zxing4oned3rss15AI013x0xDecoderE@Base 3.3.0
 _ZTVN5zxing4oned3rss15AI01AndOtherAIsE@Base 3.3.0
 _ZTVN5zxing4oned3rss17AI013x0x1xDecoderE@Base 3.3.0
 _ZTVN5zxing4oned3rss17AI01weightDecoderE@Base 3.3.0
 _ZTVN5zxing4oned3rss17AbstractRSSReaderE@Base 3.3.0
 _ZTVN5zxing4oned3rss17RSSExpandedReaderE@Base 3.3.0
 _ZTVN5zxing4oned3rss23AbstractExpandedDecoderE@Base 3.3.0
 _ZTVN5zxing4oned9ITFReaderE@Base 3.3.0
 _ZTVN5zxing5aztec11AztecReaderE@Base 3.3.0
 _ZTVN5zxing5multi13MultiDetectorE@Base 3.3.0
 _ZTVN5zxing5multi16ByQuadrantReaderE@Base 3.3.0
 _ZTVN5zxing5multi17QRCodeMultiReaderE@Base 3.3.0
 _ZTVN5zxing5multi21MultipleBarcodeReaderE@Base 3.3.0
 _ZTVN5zxing5multi24MultiFinderPatternFinderE@Base 3.3.0
 _ZTVN5zxing5multi28GenericMultipleBarcodeReaderE@Base 3.3.0
 _ZTVN5zxing6ReaderE@Base 3.3.0
 _ZTVN5zxing6pdf41712PDF417ReaderE@Base 3.3.0
 _ZTVN5zxing6qrcode11DataMask000E@Base 3.3.0
 _ZTVN5zxing6qrcode11DataMask001E@Base 3.3.0
 _ZTVN5zxing6qrcode11DataMask010E@Base 3.3.0
 _ZTVN5zxing6qrcode11DataMask011E@Base 3.3.0
 _ZTVN5zxing6qrcode11DataMask100E@Base 3.3.0
 _ZTVN5zxing6qrcode11DataMask101E@Base 3.3.0
 _ZTVN5zxing6qrcode11DataMask110E@Base 3.3.0
 _ZTVN5zxing6qrcode11DataMask111E@Base 3.3.0
 _ZTVN5zxing6qrcode12QRCodeReaderE@Base 3.3.0
 _ZTVN5zxing6qrcode13FinderPatternE@Base 3.3.0
 _ZTVN5zxing6qrcode16AlignmentPatternE@Base 3.3.0
 _ZTVN5zxing6qrcode8DataMaskE@Base 3.3.0
 _ZTVN5zxing6qrcode8DetectorE@Base 3.3.0
 _ZTVN5zxing9BinarizerE@Base 3.3.0
 _ZTVN5zxing9ExceptionE@Base 3.3.0
 (arch=armel riscv64)_ZTVSt23_Sp_counted_ptr_inplaceIN5zxing14ResultMetadata11StringValueESaIvELN9__gnu_cxx12_Lock_policyE1EE@Base 3.3.0
 (arch=!armel !riscv64)_ZTVSt23_Sp_counted_ptr_inplaceIN5zxing14ResultMetadata11StringValueESaIvELN9__gnu_cxx12_Lock_policyE2EE@Base 3.3.0
 (arch=armel riscv64)_ZTVSt23_Sp_counted_ptr_inplaceIN5zxing14ResultMetadata12IntegerValueESaIvELN9__gnu_cxx12_Lock_policyE1EE@Base 3.3.0
 (arch=!armel !riscv64)_ZTVSt23_Sp_counted_ptr_inplaceIN5zxing14ResultMetadata12IntegerValueESaIvELN9__gnu_cxx12_Lock_policyE2EE@Base 3.3.0
 (optional=templinst)_ZZN18QMetaTypeIdQObjectIP12QZXingFilterLi8EE14qt_metatype_idEvE11metatype_id@Base 3.3.0
 (optional=templinst)_ZZN18QMetaTypeIdQObjectIP6QZXingLi8EE14qt_metatype_idEvE11metatype_id@Base 3.3.0
 _ZZNSt19_Sp_make_shared_tag5_S_tiEvE5__tag@Base 3.3.0
 _ZlsRSoRK10BigInteger@Base 3.3.0
 _ZlsRSoRK11BigUnsigned@Base 3.3.0
 (c++)"non-virtual thunk to QZXingFilterRunnable::run(QVideoFrame*, QVideoSurfaceFormat const&, QFlags<QVideoFilterRunnable::RunFlag>)@Base" 3.3.0
 (c++)"non-virtual thunk to QZXingFilterRunnable::~QZXingFilterRunnable()@Base" 3.3.0
 (c++)"non-virtual thunk to QtConcurrent::RunFunctionTask<void>::run()@Base" 3.3.0
 (c++)"non-virtual thunk to QtConcurrent::RunFunctionTaskBase<void>::run()@Base" 3.3.0
 (c++)"non-virtual thunk to QtConcurrent::VoidStoredMemberFunctionPointerCall2<void, QZXingFilterRunnable, SimpleVideoFrame&, SimpleVideoFrame, QRect const&, QRect>::~VoidStoredMemberFunctionPointerCall2()@Base" 3.3.0
 (c++)"non-virtual thunk to zxing::multi::QRCodeMultiReader::decodeMultiple(QSharedPointer<zxing::BinaryBitmap>, zxing::DecodeHints)@Base" 3.3.0
 (c++)"non-virtual thunk to zxing::multi::QRCodeMultiReader::~QRCodeMultiReader()@Base" 3.3.0
